
ATmega168_OpenServo.elf:     file format elf32-avr

Sections:
Idx Name          Size      VMA       LMA       File off  Algn
  0 .data         00000008  00800100  00002ad6  00002b6a  2**0
                  CONTENTS, ALLOC, LOAD, DATA
  1 .text         00002ad6  00000000  00000000  00000094  2**1
                  CONTENTS, ALLOC, LOAD, READONLY, CODE
  2 .bss          000001ff  00800108  00800108  00002b72  2**0
                  ALLOC
Disassembly of section .text:

00000000 <__vectors>:
       0:	0c 94 4f 00 	jmp	0x9e	; 0x9e <__boot_start>
       4:	0c 94 6a 00 	jmp	0xd4	; 0xd4 <__bad_interrupt>
       8:	0c 94 6a 00 	jmp	0xd4	; 0xd4 <__bad_interrupt>
       c:	0c 94 6a 00 	jmp	0xd4	; 0xd4 <__bad_interrupt>
      10:	0c 94 6a 00 	jmp	0xd4	; 0xd4 <__bad_interrupt>
      14:	0c 94 6a 00 	jmp	0xd4	; 0xd4 <__bad_interrupt>
      18:	0c 94 6a 00 	jmp	0xd4	; 0xd4 <__bad_interrupt>
      1c:	0c 94 6a 00 	jmp	0xd4	; 0xd4 <__bad_interrupt>
      20:	0c 94 6a 00 	jmp	0xd4	; 0xd4 <__bad_interrupt>
      24:	0c 94 6a 00 	jmp	0xd4	; 0xd4 <__bad_interrupt>
      28:	0c 94 6a 00 	jmp	0xd4	; 0xd4 <__bad_interrupt>
      2c:	0c 94 6a 00 	jmp	0xd4	; 0xd4 <__bad_interrupt>
      30:	0c 94 6a 00 	jmp	0xd4	; 0xd4 <__bad_interrupt>
      34:	0c 94 6a 00 	jmp	0xd4	; 0xd4 <__bad_interrupt>
      38:	0c 94 fa 01 	jmp	0x3f4	; 0x3f4 <__vector_14>
      3c:	0c 94 6a 00 	jmp	0xd4	; 0xd4 <__bad_interrupt>
      40:	0c 94 6a 00 	jmp	0xd4	; 0xd4 <__bad_interrupt>
      44:	0c 94 6a 00 	jmp	0xd4	; 0xd4 <__bad_interrupt>
      48:	0c 94 6a 00 	jmp	0xd4	; 0xd4 <__bad_interrupt>
      4c:	0c 94 6a 00 	jmp	0xd4	; 0xd4 <__bad_interrupt>
      50:	0c 94 6a 00 	jmp	0xd4	; 0xd4 <__bad_interrupt>
      54:	0c 94 9b 01 	jmp	0x336	; 0x336 <__vector_21>
      58:	0c 94 6a 00 	jmp	0xd4	; 0xd4 <__bad_interrupt>
      5c:	0c 94 6a 00 	jmp	0xd4	; 0xd4 <__bad_interrupt>
      60:	0c 94 e5 08 	jmp	0x11ca	; 0x11ca <__vector_24>
      64:	0c 94 6a 00 	jmp	0xd4	; 0xd4 <__bad_interrupt>

00000068 <__boot_vector>:
      68:	0c 94 4f 00 	jmp	0x9e	; 0x9e <__boot_start>
      6c:	25 01       	movw	r4, r10
      6e:	6d 01       	movw	r12, r26
      70:	28 01       	movw	r4, r16
      72:	2c 01       	movw	r4, r24
      74:	34 01       	movw	r6, r8
      76:	3a 01       	movw	r6, r20
      78:	3e 01       	movw	r6, r28
      7a:	41 01       	movw	r8, r2
      7c:	44 01       	movw	r8, r8
      7e:	47 01       	movw	r8, r14
      80:	6d 01       	movw	r12, r26
      82:	6d 01       	movw	r12, r26
      84:	6d 01       	movw	r12, r26
      86:	6d 01       	movw	r12, r26
      88:	6d 01       	movw	r12, r26
      8a:	6d 01       	movw	r12, r26
      8c:	4a 01       	movw	r8, r20
      8e:	4e 01       	movw	r8, r28
      90:	52 01       	movw	r10, r4
      92:	56 01       	movw	r10, r12
      94:	5f 01       	movw	r10, r30
      96:	62 01       	movw	r12, r4
      98:	65 01       	movw	r12, r10
      9a:	6b 01       	movw	r12, r22
      9c:	68 01       	movw	r12, r16

0000009e <__boot_start>:
      9e:	11 24       	eor	r1, r1
      a0:	1f be       	out	0x3f, r1	; 63
      a2:	cf ef       	ldi	r28, 0xFF	; 255
      a4:	d4 e0       	ldi	r29, 0x04	; 4
      a6:	de bf       	out	0x3e, r29	; 62
      a8:	cd bf       	out	0x3d, r28	; 61

000000aa <__do_copy_data>:
      aa:	11 e0       	ldi	r17, 0x01	; 1
      ac:	a0 e0       	ldi	r26, 0x00	; 0
      ae:	b1 e0       	ldi	r27, 0x01	; 1
      b0:	e6 ed       	ldi	r30, 0xD6	; 214
      b2:	fa e2       	ldi	r31, 0x2A	; 42
      b4:	02 c0       	rjmp	.+4      	; 0xba <.do_copy_data_start>

000000b6 <.do_copy_data_loop>:
      b6:	05 90       	lpm	r0, Z+
      b8:	0d 92       	st	X+, r0

000000ba <.do_copy_data_start>:
      ba:	a8 30       	cpi	r26, 0x08	; 8
      bc:	b1 07       	cpc	r27, r17
      be:	d9 f7       	brne	.-10     	; 0xb6 <.do_copy_data_loop>

000000c0 <__do_clear_bss>:
      c0:	13 e0       	ldi	r17, 0x03	; 3
      c2:	a8 e0       	ldi	r26, 0x08	; 8
      c4:	b1 e0       	ldi	r27, 0x01	; 1
      c6:	01 c0       	rjmp	.+2      	; 0xca <.do_clear_bss_start>

000000c8 <.do_clear_bss_loop>:
      c8:	1d 92       	st	X+, r1

000000ca <.do_clear_bss_start>:
      ca:	a7 30       	cpi	r26, 0x07	; 7
      cc:	b1 07       	cpc	r27, r17
      ce:	e1 f7       	brne	.-8      	; 0xc8 <.do_clear_bss_loop>
      d0:	0c 94 6c 00 	jmp	0xd8	; 0xd8 <main>

000000d4 <__bad_interrupt>:
      d4:	0c 94 00 00 	jmp	0	; 0x0 <__vectors>

000000d8 <main>:
      d8:	cf 93       	push	r28
      da:	df 93       	push	r29
      dc:	86 e0       	ldi	r24, 0x06	; 6
      de:	84 b9       	out	0x04, r24	; 4
      e0:	89 ef       	ldi	r24, 0xF9	; 249
      e2:	85 b9       	out	0x05, r24	; 5
      e4:	17 b8       	out	0x07, r1	; 7
      e6:	8f e7       	ldi	r24, 0x7F	; 127
      e8:	88 b9       	out	0x08, r24	; 8
      ea:	1a b8       	out	0x0a, r1	; 10
      ec:	8f ef       	ldi	r24, 0xFF	; 255
      ee:	8b b9       	out	0x0b, r24	; 11
      f0:	0e 94 2e 03 	call	0x65c	; 0x65c <watchdog_init>
      f4:	0e 94 56 02 	call	0x4ac	; 0x4ac <registers_init>
      f8:	0e 94 49 0a 	call	0x1492	; 0x1492 <pwm_init>
      fc:	0e 94 70 01 	call	0x2e0	; 0x2e0 <adc_init>
     100:	0e 94 4b 06 	call	0xc96	; 0xc96 <pid_init>
     104:	0e 94 d3 03 	call	0x7a6	; 0x7a6 <motion_init>
     108:	0e 94 16 08 	call	0x102c	; 0x102c <power_init>
     10c:	80 91 0e 02 	lds	r24, 0x020E
     110:	0e 94 fa 09 	call	0x13f4	; 0x13f4 <twi_slave_init>
     114:	40 e0       	ldi	r20, 0x00	; 0
     116:	50 e0       	ldi	r21, 0x00	; 0
     118:	67 e0       	ldi	r22, 0x07	; 7
     11a:	86 e0       	ldi	r24, 0x06	; 6
     11c:	0e 94 3d 02 	call	0x47a	; 0x47a <registers_write_word>
     120:	78 94       	sei
     122:	80 91 e6 01 	lds	r24, 0x01E6
     126:	88 23       	and	r24, r24
     128:	e1 f3       	breq	.-8      	; 0x122 <main+0x4a>
     12a:	10 92 e6 01 	sts	0x01E6, r1
     12e:	80 91 e9 01 	lds	r24, 0x01E9
     132:	90 91 ea 01 	lds	r25, 0x01EA
     136:	0e 94 70 03 	call	0x6e0	; 0x6e0 <motion_reset>
     13a:	10 92 e6 01 	sts	0x01E6, r1
     13e:	40 91 e9 01 	lds	r20, 0x01E9
     142:	50 91 ea 01 	lds	r21, 0x01EA
     146:	61 e1       	ldi	r22, 0x11	; 17
     148:	80 e1       	ldi	r24, 0x10	; 16
     14a:	0e 94 3d 02 	call	0x47a	; 0x47a <registers_write_word>
     14e:	40 e0       	ldi	r20, 0x00	; 0
     150:	50 e0       	ldi	r21, 0x00	; 0
     152:	63 e1       	ldi	r22, 0x13	; 19
     154:	82 e1       	ldi	r24, 0x12	; 18
     156:	0e 94 3d 02 	call	0x47a	; 0x47a <registers_write_word>
     15a:	80 91 f3 01 	lds	r24, 0x01F3
     15e:	83 60       	ori	r24, 0x03	; 3
     160:	80 93 f3 01 	sts	0x01F3, r24
     164:	80 91 e6 01 	lds	r24, 0x01E6
     168:	88 23       	and	r24, r24
     16a:	09 f4       	brne	.+2      	; 0x16e <main+0x96>
     16c:	49 c0       	rjmp	.+146    	; 0x200 <main+0x128>
     16e:	8a e0       	ldi	r24, 0x0A	; 10
     170:	90 e0       	ldi	r25, 0x00	; 0
     172:	0e 94 3a 04 	call	0x874	; 0x874 <motion_next>
     176:	10 92 e6 01 	sts	0x01E6, r1
     17a:	c0 91 e9 01 	lds	r28, 0x01E9
     17e:	d0 91 ea 01 	lds	r29, 0x01EA
     182:	80 91 f3 01 	lds	r24, 0x01F3
     186:	99 27       	eor	r25, r25
     188:	83 ff       	sbrs	r24, 3
     18a:	31 c0       	rjmp	.+98     	; 0x1ee <main+0x116>
     18c:	84 ff       	sbrs	r24, 4
     18e:	17 c0       	rjmp	.+46     	; 0x1be <main+0xe6>
     190:	61 e1       	ldi	r22, 0x11	; 17
     192:	80 e1       	ldi	r24, 0x10	; 16
     194:	0e 94 2a 02 	call	0x454	; 0x454 <registers_read_word>
     198:	90 93 0b 01 	sts	0x010B, r25
     19c:	80 93 0a 01 	sts	0x010A, r24
     1a0:	40 91 0c 01 	lds	r20, 0x010C
     1a4:	50 91 0d 01 	lds	r21, 0x010D
     1a8:	84 17       	cp	r24, r20
     1aa:	95 07       	cpc	r25, r21
     1ac:	41 f0       	breq	.+16     	; 0x1be <main+0xe6>
     1ae:	90 93 09 01 	sts	0x0109, r25
     1b2:	80 93 08 01 	sts	0x0108, r24
     1b6:	61 e1       	ldi	r22, 0x11	; 17
     1b8:	80 e1       	ldi	r24, 0x10	; 16
     1ba:	0e 94 3d 02 	call	0x47a	; 0x47a <registers_write_word>
     1be:	61 e1       	ldi	r22, 0x11	; 17
     1c0:	80 e1       	ldi	r24, 0x10	; 16
     1c2:	0e 94 2a 02 	call	0x454	; 0x454 <registers_read_word>
     1c6:	90 93 0d 01 	sts	0x010D, r25
     1ca:	80 93 0c 01 	sts	0x010C, r24
     1ce:	80 91 f3 01 	lds	r24, 0x01F3
     1d2:	85 ff       	sbrs	r24, 5
     1d4:	0c c0       	rjmp	.+24     	; 0x1ee <main+0x116>
     1d6:	40 91 08 01 	lds	r20, 0x0108
     1da:	50 91 09 01 	lds	r21, 0x0109
     1de:	61 e1       	ldi	r22, 0x11	; 17
     1e0:	80 e1       	ldi	r24, 0x10	; 16
     1e2:	0e 94 3d 02 	call	0x47a	; 0x47a <registers_write_word>
     1e6:	0e 94 bf 08 	call	0x117e	; 0x117e <general_call_start_wait_reset>
     1ea:	0e 94 b9 08 	call	0x1172	; 0x1172 <general_call_start_reset>
     1ee:	ce 01       	movw	r24, r28
     1f0:	0e 94 77 06 	call	0xcee	; 0xcee <pid_position_to_pwm>
     1f4:	0e 94 76 0e 	call	0x1cec	; 0x1cec <alert_pwm_throttle>
     1f8:	bc 01       	movw	r22, r24
     1fa:	ce 01       	movw	r24, r28
     1fc:	0e 94 83 0a 	call	0x1506	; 0x1506 <pwm_update>
     200:	80 91 e8 01 	lds	r24, 0x01E8
     204:	88 23       	and	r24, r24
     206:	41 f0       	breq	.+16     	; 0x218 <main+0x140>
     208:	10 92 e8 01 	sts	0x01E8, r1
     20c:	80 91 eb 01 	lds	r24, 0x01EB
     210:	90 91 ec 01 	lds	r25, 0x01EC
     214:	0e 94 f2 07 	call	0xfe4	; 0xfe4 <power_update>
     218:	0e 94 d9 08 	call	0x11b2	; 0x11b2 <twi_data_in_receive_buffer>
     21c:	88 23       	and	r24, r24
     21e:	09 f4       	brne	.+2      	; 0x222 <main+0x14a>
     220:	5c c0       	rjmp	.+184    	; 0x2da <main+0x202>
     222:	0e 94 c5 08 	call	0x118a	; 0x118a <twi_receive_byte>
     226:	99 27       	eor	r25, r25
     228:	aa 27       	eor	r26, r26
     22a:	bb 27       	eor	r27, r27
     22c:	fc 01       	movw	r30, r24
     22e:	e0 58       	subi	r30, 0x80	; 128
     230:	f0 40       	sbci	r31, 0x00	; 0
     232:	e9 31       	cpi	r30, 0x19	; 25
     234:	f1 05       	cpc	r31, r1
     236:	08 f0       	brcs	.+2      	; 0x23a <main+0x162>
     238:	50 c0       	rjmp	.+160    	; 0x2da <main+0x202>
     23a:	ea 5c       	subi	r30, 0xCA	; 202
     23c:	ff 4f       	sbci	r31, 0xFF	; 255
     23e:	ee 0f       	add	r30, r30
     240:	ff 1f       	adc	r31, r31
     242:	05 90       	lpm	r0, Z+
     244:	f4 91       	lpm	r31, Z
     246:	e0 2d       	mov	r30, r0
     248:	09 94       	ijmp
     24a:	0e 94 38 03 	call	0x670	; 0x670 <watchdog_hard_reset>
     24e:	45 c0       	rjmp	.+138    	; 0x2da <main+0x202>
     250:	80 91 f3 01 	lds	r24, 0x01F3
     254:	81 60       	ori	r24, 0x01	; 1
     256:	0b c0       	rjmp	.+22     	; 0x26e <main+0x196>
     258:	80 91 f3 01 	lds	r24, 0x01F3
     25c:	8e 7f       	andi	r24, 0xFE	; 254
     25e:	80 93 f3 01 	sts	0x01F3, r24
     262:	0e 94 11 0a 	call	0x1422	; 0x1422 <pwm_stop>
     266:	39 c0       	rjmp	.+114    	; 0x2da <main+0x202>
     268:	80 91 f3 01 	lds	r24, 0x01F3
     26c:	82 60       	ori	r24, 0x02	; 2
     26e:	80 93 f3 01 	sts	0x01F3, r24
     272:	33 c0       	rjmp	.+102    	; 0x2da <main+0x202>
     274:	80 91 f3 01 	lds	r24, 0x01F3
     278:	8d 7f       	andi	r24, 0xFD	; 253
     27a:	f9 cf       	rjmp	.-14     	; 0x26e <main+0x196>
     27c:	0e 94 b9 02 	call	0x572	; 0x572 <eeprom_save_registers>
     280:	2c c0       	rjmp	.+88     	; 0x2da <main+0x202>
     282:	0e 94 ee 02 	call	0x5dc	; 0x5dc <eeprom_restore_registers>
     286:	29 c0       	rjmp	.+82     	; 0x2da <main+0x202>
     288:	0e 94 4c 02 	call	0x498	; 0x498 <registers_defaults>
     28c:	26 c0       	rjmp	.+76     	; 0x2da <main+0x202>
     28e:	0e 94 88 02 	call	0x510	; 0x510 <eeprom_erase>
     292:	23 c0       	rjmp	.+70     	; 0x2da <main+0x202>
     294:	81 e0       	ldi	r24, 0x01	; 1
     296:	80 93 ed 01 	sts	0x01ED, r24
     29a:	1f c0       	rjmp	.+62     	; 0x2da <main+0x202>
     29c:	80 91 f3 01 	lds	r24, 0x01F3
     2a0:	84 60       	ori	r24, 0x04	; 4
     2a2:	e5 cf       	rjmp	.-54     	; 0x26e <main+0x196>
     2a4:	80 91 f3 01 	lds	r24, 0x01F3
     2a8:	8b 7f       	andi	r24, 0xFB	; 251
     2aa:	e1 cf       	rjmp	.-62     	; 0x26e <main+0x196>
     2ac:	10 92 e6 01 	sts	0x01E6, r1
     2b0:	80 91 e9 01 	lds	r24, 0x01E9
     2b4:	90 91 ea 01 	lds	r25, 0x01EA
     2b8:	0e 94 70 03 	call	0x6e0	; 0x6e0 <motion_reset>
     2bc:	0e c0       	rjmp	.+28     	; 0x2da <main+0x202>
     2be:	0e 94 85 05 	call	0xb0a	; 0xb0a <motion_append>
     2c2:	0b c0       	rjmp	.+22     	; 0x2da <main+0x202>
     2c4:	0e 94 ef 09 	call	0x13de	; 0x13de <general_call_enable>
     2c8:	08 c0       	rjmp	.+16     	; 0x2da <main+0x202>
     2ca:	0e 94 ae 08 	call	0x115c	; 0x115c <general_call_disable>
     2ce:	05 c0       	rjmp	.+10     	; 0x2da <main+0x202>
     2d0:	0e 94 e9 09 	call	0x13d2	; 0x13d2 <general_call_start_move>
     2d4:	02 c0       	rjmp	.+4      	; 0x2da <main+0x202>
     2d6:	0e 94 e3 09 	call	0x13c6	; 0x13c6 <general_call_start_wait>
     2da:	0e 94 39 0e 	call	0x1c72	; 0x1c72 <banks_update_registers>
     2de:	42 cf       	rjmp	.-380    	; 0x164 <main+0x8c>

000002e0 <adc_init>:
     2e0:	81 e0       	ldi	r24, 0x01	; 1
     2e2:	80 93 e7 01 	sts	0x01E7, r24
     2e6:	10 92 e8 01 	sts	0x01E8, r1
     2ea:	10 92 ec 01 	sts	0x01EC, r1
     2ee:	10 92 eb 01 	sts	0x01EB, r1
     2f2:	10 92 e6 01 	sts	0x01E6, r1
     2f6:	10 92 ea 01 	sts	0x01EA, r1
     2fa:	10 92 e9 01 	sts	0x01E9, r1
     2fe:	80 93 ed 01 	sts	0x01ED, r24
     302:	88 b1       	in	r24, 0x08	; 8
     304:	88 7f       	andi	r24, 0xF8	; 248
     306:	88 b9       	out	0x08, r24	; 8
     308:	ee e7       	ldi	r30, 0x7E	; 126
     30a:	f0 e0       	ldi	r31, 0x00	; 0
     30c:	80 81       	ld	r24, Z
     30e:	87 60       	ori	r24, 0x07	; 7
     310:	80 83       	st	Z, r24
     312:	82 e4       	ldi	r24, 0x42	; 66
     314:	80 93 7c 00 	sts	0x007C, r24
     318:	83 e0       	ldi	r24, 0x03	; 3
     31a:	80 93 7b 00 	sts	0x007B, r24
     31e:	8e ea       	ldi	r24, 0xAE	; 174
     320:	80 93 7a 00 	sts	0x007A, r24
     324:	92 e0       	ldi	r25, 0x02	; 2
     326:	94 bd       	out	0x24, r25	; 36
     328:	85 e0       	ldi	r24, 0x05	; 5
     32a:	85 bd       	out	0x25, r24	; 37
     32c:	90 93 6e 00 	sts	0x006E, r25
     330:	8e e4       	ldi	r24, 0x4E	; 78
     332:	87 bd       	out	0x27, r24	; 39
     334:	08 95       	ret

00000336 <__vector_21>:
     336:	1f 92       	push	r1
     338:	0f 92       	push	r0
     33a:	0f b6       	in	r0, 0x3f	; 63
     33c:	0f 92       	push	r0
     33e:	11 24       	eor	r1, r1
     340:	2f 93       	push	r18
     342:	3f 93       	push	r19
     344:	4f 93       	push	r20
     346:	5f 93       	push	r21
     348:	6f 93       	push	r22
     34a:	7f 93       	push	r23
     34c:	8f 93       	push	r24
     34e:	9f 93       	push	r25
     350:	af 93       	push	r26
     352:	bf 93       	push	r27
     354:	ef 93       	push	r30
     356:	ff 93       	push	r31
     358:	40 91 78 00 	lds	r20, 0x0078
     35c:	50 91 79 00 	lds	r21, 0x0079
     360:	80 91 e7 01 	lds	r24, 0x01E7
     364:	81 30       	cpi	r24, 0x01	; 1
     366:	29 f0       	breq	.+10     	; 0x372 <__vector_21+0x3c>
     368:	81 30       	cpi	r24, 0x01	; 1
     36a:	68 f0       	brcs	.+26     	; 0x386 <__vector_21+0x50>
     36c:	82 30       	cpi	r24, 0x02	; 2
     36e:	89 f5       	brne	.+98     	; 0x3d2 <__vector_21+0x9c>
     370:	24 c0       	rjmp	.+72     	; 0x3ba <__vector_21+0x84>
     372:	50 93 ea 01 	sts	0x01EA, r21
     376:	40 93 e9 01 	sts	0x01E9, r20
     37a:	80 93 e6 01 	sts	0x01E6, r24
     37e:	10 92 e7 01 	sts	0x01E7, r1
     382:	80 e4       	ldi	r24, 0x40	; 64
     384:	0f c0       	rjmp	.+30     	; 0x3a4 <__vector_21+0x6e>
     386:	50 93 ec 01 	sts	0x01EC, r21
     38a:	40 93 eb 01 	sts	0x01EB, r20
     38e:	91 e0       	ldi	r25, 0x01	; 1
     390:	90 93 e8 01 	sts	0x01E8, r25
     394:	80 91 ed 01 	lds	r24, 0x01ED
     398:	88 23       	and	r24, r24
     39a:	61 f0       	breq	.+24     	; 0x3b4 <__vector_21+0x7e>
     39c:	82 e0       	ldi	r24, 0x02	; 2
     39e:	80 93 e7 01 	sts	0x01E7, r24
     3a2:	81 e4       	ldi	r24, 0x41	; 65
     3a4:	80 93 7c 00 	sts	0x007C, r24
     3a8:	80 91 7a 00 	lds	r24, 0x007A
     3ac:	80 64       	ori	r24, 0x40	; 64
     3ae:	80 93 7a 00 	sts	0x007A, r24
     3b2:	0f c0       	rjmp	.+30     	; 0x3d2 <__vector_21+0x9c>
     3b4:	90 93 e7 01 	sts	0x01E7, r25
     3b8:	09 c0       	rjmp	.+18     	; 0x3cc <__vector_21+0x96>
     3ba:	10 92 ed 01 	sts	0x01ED, r1
     3be:	65 e1       	ldi	r22, 0x15	; 21
     3c0:	84 e1       	ldi	r24, 0x14	; 20
     3c2:	0e 94 3d 02 	call	0x47a	; 0x47a <registers_write_word>
     3c6:	81 e0       	ldi	r24, 0x01	; 1
     3c8:	80 93 e7 01 	sts	0x01E7, r24
     3cc:	82 e4       	ldi	r24, 0x42	; 66
     3ce:	80 93 7c 00 	sts	0x007C, r24
     3d2:	ff 91       	pop	r31
     3d4:	ef 91       	pop	r30
     3d6:	bf 91       	pop	r27
     3d8:	af 91       	pop	r26
     3da:	9f 91       	pop	r25
     3dc:	8f 91       	pop	r24
     3de:	7f 91       	pop	r23
     3e0:	6f 91       	pop	r22
     3e2:	5f 91       	pop	r21
     3e4:	4f 91       	pop	r20
     3e6:	3f 91       	pop	r19
     3e8:	2f 91       	pop	r18
     3ea:	0f 90       	pop	r0
     3ec:	0f be       	out	0x3f, r0	; 63
     3ee:	0f 90       	pop	r0
     3f0:	1f 90       	pop	r1
     3f2:	18 95       	reti

000003f4 <__vector_14>:
     3f4:	1f 92       	push	r1
     3f6:	0f 92       	push	r0
     3f8:	0f b6       	in	r0, 0x3f	; 63
     3fa:	0f 92       	push	r0
     3fc:	11 24       	eor	r1, r1
     3fe:	2f 93       	push	r18
     400:	3f 93       	push	r19
     402:	4f 93       	push	r20
     404:	5f 93       	push	r21
     406:	6f 93       	push	r22
     408:	7f 93       	push	r23
     40a:	8f 93       	push	r24
     40c:	9f 93       	push	r25
     40e:	af 93       	push	r26
     410:	bf 93       	push	r27
     412:	ef 93       	push	r30
     414:	ff 93       	push	r31
     416:	80 91 e7 01 	lds	r24, 0x01E7
     41a:	81 30       	cpi	r24, 0x01	; 1
     41c:	51 f4       	brne	.+20     	; 0x432 <__vector_14+0x3e>
     41e:	67 e0       	ldi	r22, 0x07	; 7
     420:	86 e0       	ldi	r24, 0x06	; 6
     422:	0e 94 2a 02 	call	0x454	; 0x454 <registers_read_word>
     426:	01 96       	adiw	r24, 0x01	; 1
     428:	ac 01       	movw	r20, r24
     42a:	67 e0       	ldi	r22, 0x07	; 7
     42c:	86 e0       	ldi	r24, 0x06	; 6
     42e:	0e 94 3d 02 	call	0x47a	; 0x47a <registers_write_word>
     432:	ff 91       	pop	r31
     434:	ef 91       	pop	r30
     436:	bf 91       	pop	r27
     438:	af 91       	pop	r26
     43a:	9f 91       	pop	r25
     43c:	8f 91       	pop	r24
     43e:	7f 91       	pop	r23
     440:	6f 91       	pop	r22
     442:	5f 91       	pop	r21
     444:	4f 91       	pop	r20
     446:	3f 91       	pop	r19
     448:	2f 91       	pop	r18
     44a:	0f 90       	pop	r0
     44c:	0f be       	out	0x3f, r0	; 63
     44e:	0f 90       	pop	r0
     450:	1f 90       	pop	r1
     452:	18 95       	reti

00000454 <registers_read_word>:
     454:	9f b7       	in	r25, 0x3f	; 63
     456:	f8 94       	cli
     458:	9f bf       	out	0x3f, r25	; 63
     45a:	ae ee       	ldi	r26, 0xEE	; 238
     45c:	b1 e0       	ldi	r27, 0x01	; 1
     45e:	fd 01       	movw	r30, r26
     460:	e8 0f       	add	r30, r24
     462:	f1 1d       	adc	r31, r1
     464:	80 81       	ld	r24, Z
     466:	99 27       	eor	r25, r25
     468:	98 2f       	mov	r25, r24
     46a:	88 27       	eor	r24, r24
     46c:	a6 0f       	add	r26, r22
     46e:	b1 1d       	adc	r27, r1
     470:	2c 91       	ld	r18, X
     472:	33 27       	eor	r19, r19
     474:	82 2b       	or	r24, r18
     476:	93 2b       	or	r25, r19
     478:	08 95       	ret

0000047a <registers_write_word>:
     47a:	2f b7       	in	r18, 0x3f	; 63
     47c:	f8 94       	cli
     47e:	ee ee       	ldi	r30, 0xEE	; 238
     480:	f1 e0       	ldi	r31, 0x01	; 1
     482:	df 01       	movw	r26, r30
     484:	a8 0f       	add	r26, r24
     486:	b1 1d       	adc	r27, r1
     488:	85 2f       	mov	r24, r21
     48a:	99 27       	eor	r25, r25
     48c:	8c 93       	st	X, r24
     48e:	e6 0f       	add	r30, r22
     490:	f1 1d       	adc	r31, r1
     492:	40 83       	st	Z, r20
     494:	2f bf       	out	0x3f, r18	; 63
     496:	08 95       	ret

00000498 <registers_defaults>:
     498:	80 e1       	ldi	r24, 0x10	; 16
     49a:	80 93 0e 02 	sts	0x020E, r24
     49e:	0e 94 42 0a 	call	0x1484	; 0x1484 <pwm_registers_defaults>
     4a2:	0e 94 54 06 	call	0xca8	; 0xca8 <pid_registers_defaults>
     4a6:	0e 94 08 0e 	call	0x1c10	; 0x1c10 <banks_defaults>
     4aa:	08 95       	ret

000004ac <registers_init>:
     4ac:	cf 93       	push	r28
     4ae:	df 93       	push	r29
     4b0:	ce ee       	ldi	r28, 0xEE	; 238
     4b2:	d1 e0       	ldi	r29, 0x01	; 1
     4b4:	89 e3       	ldi	r24, 0x39	; 57
     4b6:	fe 01       	movw	r30, r28
     4b8:	11 92       	st	Z+, r1
     4ba:	8a 95       	dec	r24
     4bc:	e9 f7       	brne	.-6      	; 0x4b8 <registers_init+0xc>
     4be:	81 e0       	ldi	r24, 0x01	; 1
     4c0:	80 93 ee 01 	sts	0x01EE, r24
     4c4:	80 93 ef 01 	sts	0x01EF, r24
     4c8:	10 92 f0 01 	sts	0x01F0, r1
     4cc:	82 e0       	ldi	r24, 0x02	; 2
     4ce:	80 93 f1 01 	sts	0x01F1, r24
     4d2:	0e 94 3c 0e 	call	0x1c78	; 0x1c78 <banks_init>
     4d6:	0e 94 ee 02 	call	0x5dc	; 0x5dc <eeprom_restore_registers>
     4da:	88 23       	and	r24, r24
     4dc:	51 f4       	brne	.+20     	; 0x4f2 <registers_init+0x46>
     4de:	48 e1       	ldi	r20, 0x18	; 24
     4e0:	50 e0       	ldi	r21, 0x00	; 0
     4e2:	68 e1       	ldi	r22, 0x18	; 24
     4e4:	70 e0       	ldi	r23, 0x00	; 0
     4e6:	ce 01       	movw	r24, r28
     4e8:	80 96       	adiw	r24, 0x20	; 32
     4ea:	0e 94 ce 14 	call	0x299c	; 0x299c <memset>
     4ee:	0e 94 4c 02 	call	0x498	; 0x498 <registers_defaults>
     4f2:	df 91       	pop	r29
     4f4:	cf 91       	pop	r28
     4f6:	08 95       	ret

000004f8 <eeprom_checksum>:
     4f8:	fc 01       	movw	r30, r24
     4fa:	04 c0       	rjmp	.+8      	; 0x504 <__stack+0x5>
     4fc:	81 91       	ld	r24, Z+
     4fe:	48 0f       	add	r20, r24
     500:	61 50       	subi	r22, 0x01	; 1
     502:	70 40       	sbci	r23, 0x00	; 0
     504:	61 15       	cp	r22, r1
     506:	71 05       	cpc	r23, r1
     508:	c9 f7       	brne	.-14     	; 0x4fc <eeprom_checksum+0x4>
     50a:	84 2f       	mov	r24, r20
     50c:	99 27       	eor	r25, r25
     50e:	08 95       	ret

00000510 <eeprom_erase>:
     510:	0f 93       	push	r16
     512:	1f 93       	push	r17
     514:	cf 93       	push	r28
     516:	df 93       	push	r29
     518:	cd b7       	in	r28, 0x3d	; 61
     51a:	de b7       	in	r29, 0x3e	; 62
     51c:	60 97       	sbiw	r28, 0x10	; 16
     51e:	0f b6       	in	r0, 0x3f	; 63
     520:	f8 94       	cli
     522:	de bf       	out	0x3e, r29	; 62
     524:	0f be       	out	0x3f, r0	; 63
     526:	cd bf       	out	0x3d, r28	; 61
     528:	40 e1       	ldi	r20, 0x10	; 16
     52a:	50 e0       	ldi	r21, 0x00	; 0
     52c:	6f ef       	ldi	r22, 0xFF	; 255
     52e:	70 e0       	ldi	r23, 0x00	; 0
     530:	8e 01       	movw	r16, r28
     532:	0f 5f       	subi	r16, 0xFF	; 255
     534:	1f 4f       	sbci	r17, 0xFF	; 255
     536:	c8 01       	movw	r24, r16
     538:	0e 94 ce 14 	call	0x299c	; 0x299c <memset>
     53c:	80 e0       	ldi	r24, 0x00	; 0
     53e:	90 e0       	ldi	r25, 0x00	; 0
     540:	40 e1       	ldi	r20, 0x10	; 16
     542:	98 01       	movw	r18, r16
     544:	dc 01       	movw	r26, r24
     546:	f9 01       	movw	r30, r18
     548:	14 2e       	mov	r1, r20
     54a:	0e 94 52 15 	call	0x2aa4	; 0x2aa4 <__eeprom_write_block_1F2021>
     54e:	40 96       	adiw	r24, 0x10	; 16
     550:	f2 e0       	ldi	r31, 0x02	; 2
     552:	80 30       	cpi	r24, 0x00	; 0
     554:	9f 07       	cpc	r25, r31
     556:	b1 f7       	brne	.-20     	; 0x544 <eeprom_erase+0x34>
     558:	81 e0       	ldi	r24, 0x01	; 1
     55a:	90 e0       	ldi	r25, 0x00	; 0
     55c:	60 96       	adiw	r28, 0x10	; 16
     55e:	0f b6       	in	r0, 0x3f	; 63
     560:	f8 94       	cli
     562:	de bf       	out	0x3e, r29	; 62
     564:	0f be       	out	0x3f, r0	; 63
     566:	cd bf       	out	0x3d, r28	; 61
     568:	df 91       	pop	r29
     56a:	cf 91       	pop	r28
     56c:	1f 91       	pop	r17
     56e:	0f 91       	pop	r16
     570:	08 95       	ret

00000572 <eeprom_save_registers>:
     572:	0f 93       	push	r16
     574:	1f 93       	push	r17
     576:	cf 93       	push	r28
     578:	df 93       	push	r29
     57a:	cd b7       	in	r28, 0x3d	; 61
     57c:	de b7       	in	r29, 0x3e	; 62
     57e:	22 97       	sbiw	r28, 0x02	; 2
     580:	0f b6       	in	r0, 0x3f	; 63
     582:	f8 94       	cli
     584:	de bf       	out	0x3e, r29	; 62
     586:	0f be       	out	0x3f, r0	; 63
     588:	cd bf       	out	0x3d, r28	; 61
     58a:	83 e0       	ldi	r24, 0x03	; 3
     58c:	89 83       	std	Y+1, r24	; 0x01
     58e:	0e e0       	ldi	r16, 0x0E	; 14
     590:	12 e0       	ldi	r17, 0x02	; 2
     592:	43 e0       	ldi	r20, 0x03	; 3
     594:	68 e1       	ldi	r22, 0x18	; 24
     596:	70 e0       	ldi	r23, 0x00	; 0
     598:	c8 01       	movw	r24, r16
     59a:	0e 94 7c 02 	call	0x4f8	; 0x4f8 <eeprom_checksum>
     59e:	8a 83       	std	Y+2, r24	; 0x02
     5a0:	82 e0       	ldi	r24, 0x02	; 2
     5a2:	a0 e0       	ldi	r26, 0x00	; 0
     5a4:	b0 e0       	ldi	r27, 0x00	; 0
     5a6:	fe 01       	movw	r30, r28
     5a8:	31 96       	adiw	r30, 0x01	; 1
     5aa:	18 2e       	mov	r1, r24
     5ac:	0e 94 52 15 	call	0x2aa4	; 0x2aa4 <__eeprom_write_block_1F2021>
     5b0:	88 e1       	ldi	r24, 0x18	; 24
     5b2:	a2 e0       	ldi	r26, 0x02	; 2
     5b4:	b0 e0       	ldi	r27, 0x00	; 0
     5b6:	f8 01       	movw	r30, r16
     5b8:	18 2e       	mov	r1, r24
     5ba:	0e 94 52 15 	call	0x2aa4	; 0x2aa4 <__eeprom_write_block_1F2021>
     5be:	0e 94 4f 0e 	call	0x1c9e	; 0x1c9e <banks_save_registers>
     5c2:	81 e0       	ldi	r24, 0x01	; 1
     5c4:	90 e0       	ldi	r25, 0x00	; 0
     5c6:	22 96       	adiw	r28, 0x02	; 2
     5c8:	0f b6       	in	r0, 0x3f	; 63
     5ca:	f8 94       	cli
     5cc:	de bf       	out	0x3e, r29	; 62
     5ce:	0f be       	out	0x3f, r0	; 63
     5d0:	cd bf       	out	0x3d, r28	; 61
     5d2:	df 91       	pop	r29
     5d4:	cf 91       	pop	r28
     5d6:	1f 91       	pop	r17
     5d8:	0f 91       	pop	r16
     5da:	08 95       	ret

000005dc <eeprom_restore_registers>:
     5dc:	ff 92       	push	r15
     5de:	0f 93       	push	r16
     5e0:	1f 93       	push	r17
     5e2:	cf 93       	push	r28
     5e4:	df 93       	push	r29
     5e6:	cd b7       	in	r28, 0x3d	; 61
     5e8:	de b7       	in	r29, 0x3e	; 62
     5ea:	22 97       	sbiw	r28, 0x02	; 2
     5ec:	0f b6       	in	r0, 0x3f	; 63
     5ee:	f8 94       	cli
     5f0:	de bf       	out	0x3e, r29	; 62
     5f2:	0f be       	out	0x3f, r0	; 63
     5f4:	cd bf       	out	0x3d, r28	; 61
     5f6:	82 e0       	ldi	r24, 0x02	; 2
     5f8:	a0 e0       	ldi	r26, 0x00	; 0
     5fa:	b0 e0       	ldi	r27, 0x00	; 0
     5fc:	fe 01       	movw	r30, r28
     5fe:	31 96       	adiw	r30, 0x01	; 1
     600:	18 2e       	mov	r1, r24
     602:	0e 94 4d 15 	call	0x2a9a	; 0x2a9a <__eeprom_read_block_1F2021>
     606:	89 81       	ldd	r24, Y+1	; 0x01
     608:	83 30       	cpi	r24, 0x03	; 3
     60a:	19 f0       	breq	.+6      	; 0x612 <eeprom_restore_registers+0x36>
     60c:	80 e0       	ldi	r24, 0x00	; 0
     60e:	90 e0       	ldi	r25, 0x00	; 0
     610:	19 c0       	rjmp	.+50     	; 0x644 <eeprom_restore_registers+0x68>
     612:	88 e1       	ldi	r24, 0x18	; 24
     614:	0e e0       	ldi	r16, 0x0E	; 14
     616:	12 e0       	ldi	r17, 0x02	; 2
     618:	a2 e0       	ldi	r26, 0x02	; 2
     61a:	b0 e0       	ldi	r27, 0x00	; 0
     61c:	f8 01       	movw	r30, r16
     61e:	18 2e       	mov	r1, r24
     620:	0e 94 4d 15 	call	0x2a9a	; 0x2a9a <__eeprom_read_block_1F2021>
     624:	0e 94 62 0e 	call	0x1cc4	; 0x1cc4 <banks_restore_registers>
     628:	fa 80       	ldd	r15, Y+2	; 0x02
     62a:	43 e0       	ldi	r20, 0x03	; 3
     62c:	68 e1       	ldi	r22, 0x18	; 24
     62e:	70 e0       	ldi	r23, 0x00	; 0
     630:	c8 01       	movw	r24, r16
     632:	0e 94 7c 02 	call	0x4f8	; 0x4f8 <eeprom_checksum>
     636:	90 e0       	ldi	r25, 0x00	; 0
     638:	f8 12       	cpse	r15, r24
     63a:	91 e0       	ldi	r25, 0x01	; 1
     63c:	81 e0       	ldi	r24, 0x01	; 1
     63e:	98 27       	eor	r25, r24
     640:	89 2f       	mov	r24, r25
     642:	99 27       	eor	r25, r25
     644:	22 96       	adiw	r28, 0x02	; 2
     646:	0f b6       	in	r0, 0x3f	; 63
     648:	f8 94       	cli
     64a:	de bf       	out	0x3e, r29	; 62
     64c:	0f be       	out	0x3f, r0	; 63
     64e:	cd bf       	out	0x3d, r28	; 61
     650:	df 91       	pop	r29
     652:	cf 91       	pop	r28
     654:	1f 91       	pop	r17
     656:	0f 91       	pop	r16
     658:	ff 90       	pop	r15
     65a:	08 95       	ret

0000065c <watchdog_init>:
     65c:	84 b7       	in	r24, 0x34	; 52
     65e:	87 7f       	andi	r24, 0xF7	; 247
     660:	84 bf       	out	0x34, r24	; 52
     662:	e0 e6       	ldi	r30, 0x60	; 96
     664:	f0 e0       	ldi	r31, 0x00	; 0
     666:	80 81       	ld	r24, Z
     668:	88 61       	ori	r24, 0x18	; 24
     66a:	80 83       	st	Z, r24
     66c:	10 82       	st	Z, r1
     66e:	08 95       	ret

00000670 <watchdog_hard_reset>:
     670:	80 91 f3 01 	lds	r24, 0x01F3
     674:	8e 7f       	andi	r24, 0xFE	; 254
     676:	80 93 f3 01 	sts	0x01F3, r24
     67a:	0e 94 11 0a 	call	0x1422	; 0x1422 <pwm_stop>
     67e:	88 e8       	ldi	r24, 0x88	; 136
     680:	80 93 60 00 	sts	0x0060, r24
     684:	ff cf       	rjmp	.-2      	; 0x684 <watchdog_hard_reset+0x14>

00000686 <motion_buffer_left>:
     686:	90 91 30 02 	lds	r25, 0x0230
     68a:	80 91 27 02 	lds	r24, 0x0227
     68e:	98 17       	cp	r25, r24
     690:	18 f4       	brcc	.+6      	; 0x698 <motion_buffer_left+0x12>
     692:	89 1b       	sub	r24, r25
     694:	81 50       	subi	r24, 0x01	; 1
     696:	03 c0       	rjmp	.+6      	; 0x69e <motion_buffer_left+0x18>
     698:	98 1b       	sub	r25, r24
     69a:	87 e0       	ldi	r24, 0x07	; 7
     69c:	89 1b       	sub	r24, r25
     69e:	99 27       	eor	r25, r25
     6a0:	08 95       	ret

000006a2 <motion_registers_reset>:
     6a2:	40 e0       	ldi	r20, 0x00	; 0
     6a4:	50 e0       	ldi	r21, 0x00	; 0
     6a6:	6b e1       	ldi	r22, 0x1B	; 27
     6a8:	8a e1       	ldi	r24, 0x1A	; 26
     6aa:	0e 94 3d 02 	call	0x47a	; 0x47a <registers_write_word>
     6ae:	40 e0       	ldi	r20, 0x00	; 0
     6b0:	50 e0       	ldi	r21, 0x00	; 0
     6b2:	6d e1       	ldi	r22, 0x1D	; 29
     6b4:	8c e1       	ldi	r24, 0x1C	; 28
     6b6:	0e 94 3d 02 	call	0x47a	; 0x47a <registers_write_word>
     6ba:	40 e0       	ldi	r20, 0x00	; 0
     6bc:	50 e0       	ldi	r21, 0x00	; 0
     6be:	6f e1       	ldi	r22, 0x1F	; 31
     6c0:	8e e1       	ldi	r24, 0x1E	; 30
     6c2:	0e 94 3d 02 	call	0x47a	; 0x47a <registers_write_word>
     6c6:	40 e0       	ldi	r20, 0x00	; 0
     6c8:	50 e0       	ldi	r21, 0x00	; 0
     6ca:	69 e1       	ldi	r22, 0x19	; 25
     6cc:	88 e1       	ldi	r24, 0x18	; 24
     6ce:	0e 94 3d 02 	call	0x47a	; 0x47a <registers_write_word>
     6d2:	10 92 04 02 	sts	0x0204, r1
     6d6:	0e 94 43 03 	call	0x686	; 0x686 <motion_buffer_left>
     6da:	80 93 05 02 	sts	0x0205, r24
     6de:	08 95       	ret

000006e0 <motion_reset>:
     6e0:	af 92       	push	r10
     6e2:	bf 92       	push	r11
     6e4:	cf 92       	push	r12
     6e6:	df 92       	push	r13
     6e8:	ef 92       	push	r14
     6ea:	ff 92       	push	r15
     6ec:	0f 93       	push	r16
     6ee:	1f 93       	push	r17
     6f0:	10 92 28 02 	sts	0x0228, r1
     6f4:	10 92 29 02 	sts	0x0229, r1
     6f8:	10 92 2a 02 	sts	0x022A, r1
     6fc:	10 92 2b 02 	sts	0x022B, r1
     700:	10 92 2c 02 	sts	0x022C, r1
     704:	10 92 2d 02 	sts	0x022D, r1
     708:	10 92 2e 02 	sts	0x022E, r1
     70c:	10 92 2f 02 	sts	0x022F, r1
     710:	10 92 30 02 	sts	0x0230, r1
     714:	10 92 27 02 	sts	0x0227, r1
     718:	10 92 0f 01 	sts	0x010F, r1
     71c:	10 92 0e 01 	sts	0x010E, r1
     720:	aa 27       	eor	r26, r26
     722:	97 fd       	sbrc	r25, 7
     724:	a0 95       	com	r26
     726:	ba 2f       	mov	r27, r26
     728:	bc 01       	movw	r22, r24
     72a:	cd 01       	movw	r24, r26
     72c:	0e 94 54 12 	call	0x24a8	; 0x24a8 <__floatsisf>
     730:	9b 01       	movw	r18, r22
     732:	ac 01       	movw	r20, r24
     734:	60 93 10 01 	sts	0x0110, r22
     738:	70 93 11 01 	sts	0x0111, r23
     73c:	80 93 12 01 	sts	0x0112, r24
     740:	90 93 13 01 	sts	0x0113, r25
     744:	80 e0       	ldi	r24, 0x00	; 0
     746:	90 e0       	ldi	r25, 0x00	; 0
     748:	a0 e0       	ldi	r26, 0x00	; 0
     74a:	b0 e0       	ldi	r27, 0x00	; 0
     74c:	80 93 14 01 	sts	0x0114, r24
     750:	90 93 15 01 	sts	0x0115, r25
     754:	a0 93 16 01 	sts	0x0116, r26
     758:	b0 93 17 01 	sts	0x0117, r27
     75c:	80 93 18 01 	sts	0x0118, r24
     760:	90 93 19 01 	sts	0x0119, r25
     764:	a0 93 1a 01 	sts	0x011A, r26
     768:	b0 93 1b 01 	sts	0x011B, r27
     76c:	bf 93       	push	r27
     76e:	af 93       	push	r26
     770:	9f 93       	push	r25
     772:	8f 93       	push	r24
     774:	5c 01       	movw	r10, r24
     776:	6d 01       	movw	r12, r26
     778:	79 01       	movw	r14, r18
     77a:	8a 01       	movw	r16, r20
     77c:	60 e0       	ldi	r22, 0x00	; 0
     77e:	70 e0       	ldi	r23, 0x00	; 0
     780:	80 e0       	ldi	r24, 0x00	; 0
     782:	90 e0       	ldi	r25, 0x00	; 0
     784:	0e 94 c3 0b 	call	0x1786	; 0x1786 <curve_init>
     788:	0e 94 51 03 	call	0x6a2	; 0x6a2 <motion_registers_reset>
     78c:	0f 90       	pop	r0
     78e:	0f 90       	pop	r0
     790:	0f 90       	pop	r0
     792:	0f 90       	pop	r0
     794:	1f 91       	pop	r17
     796:	0f 91       	pop	r16
     798:	ff 90       	pop	r15
     79a:	ef 90       	pop	r14
     79c:	df 90       	pop	r13
     79e:	cf 90       	pop	r12
     7a0:	bf 90       	pop	r11
     7a2:	af 90       	pop	r10
     7a4:	08 95       	ret

000007a6 <motion_init>:
     7a6:	af 92       	push	r10
     7a8:	bf 92       	push	r11
     7aa:	cf 92       	push	r12
     7ac:	df 92       	push	r13
     7ae:	ef 92       	push	r14
     7b0:	ff 92       	push	r15
     7b2:	0f 93       	push	r16
     7b4:	1f 93       	push	r17
     7b6:	10 92 28 02 	sts	0x0228, r1
     7ba:	10 92 29 02 	sts	0x0229, r1
     7be:	10 92 2a 02 	sts	0x022A, r1
     7c2:	10 92 2b 02 	sts	0x022B, r1
     7c6:	10 92 2c 02 	sts	0x022C, r1
     7ca:	10 92 2d 02 	sts	0x022D, r1
     7ce:	10 92 2e 02 	sts	0x022E, r1
     7d2:	10 92 2f 02 	sts	0x022F, r1
     7d6:	10 92 30 02 	sts	0x0230, r1
     7da:	10 92 27 02 	sts	0x0227, r1
     7de:	10 92 0f 01 	sts	0x010F, r1
     7e2:	10 92 0e 01 	sts	0x010E, r1
     7e6:	80 e0       	ldi	r24, 0x00	; 0
     7e8:	90 e0       	ldi	r25, 0x00	; 0
     7ea:	a0 e0       	ldi	r26, 0x00	; 0
     7ec:	b4 e4       	ldi	r27, 0x44	; 68
     7ee:	80 93 10 01 	sts	0x0110, r24
     7f2:	90 93 11 01 	sts	0x0111, r25
     7f6:	a0 93 12 01 	sts	0x0112, r26
     7fa:	b0 93 13 01 	sts	0x0113, r27
     7fe:	80 e0       	ldi	r24, 0x00	; 0
     800:	90 e0       	ldi	r25, 0x00	; 0
     802:	a0 e0       	ldi	r26, 0x00	; 0
     804:	b0 e0       	ldi	r27, 0x00	; 0
     806:	80 93 14 01 	sts	0x0114, r24
     80a:	90 93 15 01 	sts	0x0115, r25
     80e:	a0 93 16 01 	sts	0x0116, r26
     812:	b0 93 17 01 	sts	0x0117, r27
     816:	80 93 18 01 	sts	0x0118, r24
     81a:	90 93 19 01 	sts	0x0119, r25
     81e:	a0 93 1a 01 	sts	0x011A, r26
     822:	b0 93 1b 01 	sts	0x011B, r27
     826:	bf 93       	push	r27
     828:	af 93       	push	r26
     82a:	9f 93       	push	r25
     82c:	8f 93       	push	r24
     82e:	5c 01       	movw	r10, r24
     830:	6d 01       	movw	r12, r26
     832:	0f 2e       	mov	r0, r31
     834:	f0 e0       	ldi	r31, 0x00	; 0
     836:	ef 2e       	mov	r14, r31
     838:	f0 e0       	ldi	r31, 0x00	; 0
     83a:	ff 2e       	mov	r15, r31
     83c:	f0 e0       	ldi	r31, 0x00	; 0
     83e:	0f 2f       	mov	r16, r31
     840:	f4 e4       	ldi	r31, 0x44	; 68
     842:	1f 2f       	mov	r17, r31
     844:	f0 2d       	mov	r31, r0
     846:	a8 01       	movw	r20, r16
     848:	97 01       	movw	r18, r14
     84a:	60 e0       	ldi	r22, 0x00	; 0
     84c:	70 e0       	ldi	r23, 0x00	; 0
     84e:	80 e0       	ldi	r24, 0x00	; 0
     850:	90 e0       	ldi	r25, 0x00	; 0
     852:	0e 94 c3 0b 	call	0x1786	; 0x1786 <curve_init>
     856:	0e 94 51 03 	call	0x6a2	; 0x6a2 <motion_registers_reset>
     85a:	0f 90       	pop	r0
     85c:	0f 90       	pop	r0
     85e:	0f 90       	pop	r0
     860:	0f 90       	pop	r0
     862:	1f 91       	pop	r17
     864:	0f 91       	pop	r16
     866:	ff 90       	pop	r15
     868:	ef 90       	pop	r14
     86a:	df 90       	pop	r13
     86c:	cf 90       	pop	r12
     86e:	bf 90       	pop	r11
     870:	af 90       	pop	r10
     872:	08 95       	ret

00000874 <motion_next>:
     874:	af 92       	push	r10
     876:	bf 92       	push	r11
     878:	cf 92       	push	r12
     87a:	df 92       	push	r13
     87c:	ef 92       	push	r14
     87e:	ff 92       	push	r15
     880:	0f 93       	push	r16
     882:	1f 93       	push	r17
     884:	cf 93       	push	r28
     886:	df 93       	push	r29
     888:	cd b7       	in	r28, 0x3d	; 61
     88a:	de b7       	in	r29, 0x3e	; 62
     88c:	28 97       	sbiw	r28, 0x08	; 8
     88e:	0f b6       	in	r0, 0x3f	; 63
     890:	f8 94       	cli
     892:	de bf       	out	0x3e, r29	; 62
     894:	0f be       	out	0x3f, r0	; 63
     896:	cd bf       	out	0x3d, r28	; 61
     898:	9c 01       	movw	r18, r24
     89a:	80 91 f3 01 	lds	r24, 0x01F3
     89e:	82 ff       	sbrs	r24, 2
     8a0:	23 c1       	rjmp	.+582    	; 0xae8 <motion_next+0x274>
     8a2:	90 91 27 02 	lds	r25, 0x0227
     8a6:	80 91 30 02 	lds	r24, 0x0230
     8aa:	98 17       	cp	r25, r24
     8ac:	89 f4       	brne	.+34     	; 0x8d0 <motion_next+0x5c>
     8ae:	10 92 28 02 	sts	0x0228, r1
     8b2:	10 92 29 02 	sts	0x0229, r1
     8b6:	10 92 2a 02 	sts	0x022A, r1
     8ba:	10 92 2b 02 	sts	0x022B, r1
     8be:	10 92 2c 02 	sts	0x022C, r1
     8c2:	10 92 2d 02 	sts	0x022D, r1
     8c6:	10 92 2e 02 	sts	0x022E, r1
     8ca:	10 92 2f 02 	sts	0x022F, r1
     8ce:	ce c0       	rjmp	.+412    	; 0xa6c <motion_next+0x1f8>
     8d0:	44 27       	eor	r20, r20
     8d2:	55 27       	eor	r21, r21
     8d4:	80 91 28 02 	lds	r24, 0x0228
     8d8:	90 91 29 02 	lds	r25, 0x0229
     8dc:	a0 91 2a 02 	lds	r26, 0x022A
     8e0:	b0 91 2b 02 	lds	r27, 0x022B
     8e4:	82 0f       	add	r24, r18
     8e6:	93 1f       	adc	r25, r19
     8e8:	a4 1f       	adc	r26, r20
     8ea:	b5 1f       	adc	r27, r21
     8ec:	80 93 28 02 	sts	0x0228, r24
     8f0:	90 93 29 02 	sts	0x0229, r25
     8f4:	a0 93 2a 02 	sts	0x022A, r26
     8f8:	b0 93 2b 02 	sts	0x022B, r27
     8fc:	a2 c0       	rjmp	.+324    	; 0xa42 <motion_next+0x1ce>
     8fe:	2e 19       	sub	r18, r14
     900:	3f 09       	sbc	r19, r15
     902:	40 0b       	sbc	r20, r16
     904:	51 0b       	sbc	r21, r17
     906:	20 93 28 02 	sts	0x0228, r18
     90a:	30 93 29 02 	sts	0x0229, r19
     90e:	40 93 2a 02 	sts	0x022A, r20
     912:	50 93 2b 02 	sts	0x022B, r21
     916:	80 91 2c 02 	lds	r24, 0x022C
     91a:	90 91 2d 02 	lds	r25, 0x022D
     91e:	a0 91 2e 02 	lds	r26, 0x022E
     922:	b0 91 2f 02 	lds	r27, 0x022F
     926:	8e 19       	sub	r24, r14
     928:	9f 09       	sbc	r25, r15
     92a:	a0 0b       	sbc	r26, r16
     92c:	b1 0b       	sbc	r27, r17
     92e:	80 93 2c 02 	sts	0x022C, r24
     932:	90 93 2d 02 	sts	0x022D, r25
     936:	a0 93 2e 02 	sts	0x022E, r26
     93a:	b0 93 2f 02 	sts	0x022F, r27
     93e:	20 91 27 02 	lds	r18, 0x0227
     942:	2f 5f       	subi	r18, 0xFF	; 255
     944:	27 70       	andi	r18, 0x07	; 7
     946:	20 93 27 02 	sts	0x0227, r18
     94a:	80 91 30 02 	lds	r24, 0x0230
     94e:	42 2f       	mov	r20, r18
     950:	55 27       	eor	r21, r21
     952:	28 17       	cp	r18, r24
     954:	a1 f5       	brne	.+104    	; 0x9be <motion_next+0x14a>
     956:	ca 01       	movw	r24, r20
     958:	88 0f       	add	r24, r24
     95a:	99 1f       	adc	r25, r25
     95c:	fc 01       	movw	r30, r24
     95e:	a3 e0       	ldi	r26, 0x03	; 3
     960:	ee 0f       	add	r30, r30
     962:	ff 1f       	adc	r31, r31
     964:	aa 95       	dec	r26
     966:	e1 f7       	brne	.-8      	; 0x960 <motion_next+0xec>
     968:	e8 1b       	sub	r30, r24
     96a:	f9 0b       	sbc	r31, r25
     96c:	e2 5f       	subi	r30, 0xF2	; 242
     96e:	fe 4f       	sbci	r31, 0xFE	; 254
     970:	22 81       	ldd	r18, Z+2	; 0x02
     972:	33 81       	ldd	r19, Z+3	; 0x03
     974:	44 81       	ldd	r20, Z+4	; 0x04
     976:	55 81       	ldd	r21, Z+5	; 0x05
     978:	80 e0       	ldi	r24, 0x00	; 0
     97a:	90 e0       	ldi	r25, 0x00	; 0
     97c:	a0 e0       	ldi	r26, 0x00	; 0
     97e:	b0 e0       	ldi	r27, 0x00	; 0
     980:	bf 93       	push	r27
     982:	af 93       	push	r26
     984:	9f 93       	push	r25
     986:	8f 93       	push	r24
     988:	5c 01       	movw	r10, r24
     98a:	6d 01       	movw	r12, r26
     98c:	79 01       	movw	r14, r18
     98e:	8a 01       	movw	r16, r20
     990:	60 e0       	ldi	r22, 0x00	; 0
     992:	70 e0       	ldi	r23, 0x00	; 0
     994:	80 e0       	ldi	r24, 0x00	; 0
     996:	90 e0       	ldi	r25, 0x00	; 0
     998:	0e 94 c3 0b 	call	0x1786	; 0x1786 <curve_init>
     99c:	10 92 28 02 	sts	0x0228, r1
     9a0:	10 92 29 02 	sts	0x0229, r1
     9a4:	10 92 2a 02 	sts	0x022A, r1
     9a8:	10 92 2b 02 	sts	0x022B, r1
     9ac:	10 92 2c 02 	sts	0x022C, r1
     9b0:	10 92 2d 02 	sts	0x022D, r1
     9b4:	10 92 2e 02 	sts	0x022E, r1
     9b8:	10 92 2f 02 	sts	0x022F, r1
     9bc:	3a c0       	rjmp	.+116    	; 0xa32 <motion_next+0x1be>
     9be:	2f 5f       	subi	r18, 0xFF	; 255
     9c0:	27 70       	andi	r18, 0x07	; 7
     9c2:	33 27       	eor	r19, r19
     9c4:	ca 01       	movw	r24, r20
     9c6:	88 0f       	add	r24, r24
     9c8:	99 1f       	adc	r25, r25
     9ca:	dc 01       	movw	r26, r24
     9cc:	63 e0       	ldi	r22, 0x03	; 3
     9ce:	aa 0f       	add	r26, r26
     9d0:	bb 1f       	adc	r27, r27
     9d2:	6a 95       	dec	r22
     9d4:	e1 f7       	brne	.-8      	; 0x9ce <motion_next+0x15a>
     9d6:	a8 1b       	sub	r26, r24
     9d8:	b9 0b       	sbc	r27, r25
     9da:	a2 5f       	subi	r26, 0xF2	; 242
     9dc:	be 4f       	sbci	r27, 0xFE	; 254
     9de:	fd 01       	movw	r30, r26
     9e0:	a2 84       	ldd	r10, Z+10	; 0x0a
     9e2:	b3 84       	ldd	r11, Z+11	; 0x0b
     9e4:	c4 84       	ldd	r12, Z+12	; 0x0c
     9e6:	d5 84       	ldd	r13, Z+13	; 0x0d
     9e8:	22 0f       	add	r18, r18
     9ea:	33 1f       	adc	r19, r19
     9ec:	c9 01       	movw	r24, r18
     9ee:	43 e0       	ldi	r20, 0x03	; 3
     9f0:	88 0f       	add	r24, r24
     9f2:	99 1f       	adc	r25, r25
     9f4:	4a 95       	dec	r20
     9f6:	e1 f7       	brne	.-8      	; 0x9f0 <motion_next+0x17c>
     9f8:	82 1b       	sub	r24, r18
     9fa:	93 0b       	sbc	r25, r19
     9fc:	82 5f       	subi	r24, 0xF2	; 242
     9fe:	9e 4f       	sbci	r25, 0xFE	; 254
     a00:	fc 01       	movw	r30, r24
     a02:	e2 80       	ldd	r14, Z+2	; 0x02
     a04:	f3 80       	ldd	r15, Z+3	; 0x03
     a06:	04 81       	ldd	r16, Z+4	; 0x04
     a08:	15 81       	ldd	r17, Z+5	; 0x05
     a0a:	fd 01       	movw	r30, r26
     a0c:	22 81       	ldd	r18, Z+2	; 0x02
     a0e:	33 81       	ldd	r19, Z+3	; 0x03
     a10:	44 81       	ldd	r20, Z+4	; 0x04
     a12:	55 81       	ldd	r21, Z+5	; 0x05
     a14:	fc 01       	movw	r30, r24
     a16:	60 81       	ld	r22, Z
     a18:	71 81       	ldd	r23, Z+1	; 0x01
     a1a:	86 81       	ldd	r24, Z+6	; 0x06
     a1c:	97 81       	ldd	r25, Z+7	; 0x07
     a1e:	a0 85       	ldd	r26, Z+8	; 0x08
     a20:	b1 85       	ldd	r27, Z+9	; 0x09
     a22:	bf 93       	push	r27
     a24:	af 93       	push	r26
     a26:	9f 93       	push	r25
     a28:	8f 93       	push	r24
     a2a:	80 e0       	ldi	r24, 0x00	; 0
     a2c:	90 e0       	ldi	r25, 0x00	; 0
     a2e:	0e 94 c3 0b 	call	0x1786	; 0x1786 <curve_init>
     a32:	0f 90       	pop	r0
     a34:	0f 90       	pop	r0
     a36:	0f 90       	pop	r0
     a38:	0f 90       	pop	r0
     a3a:	0e 94 43 03 	call	0x686	; 0x686 <motion_buffer_left>
     a3e:	80 93 05 02 	sts	0x0205, r24
     a42:	20 91 28 02 	lds	r18, 0x0228
     a46:	30 91 29 02 	lds	r19, 0x0229
     a4a:	40 91 2a 02 	lds	r20, 0x022A
     a4e:	50 91 2b 02 	lds	r21, 0x022B
     a52:	80 91 45 02 	lds	r24, 0x0245
     a56:	90 91 46 02 	lds	r25, 0x0246
     a5a:	7c 01       	movw	r14, r24
     a5c:	00 27       	eor	r16, r16
     a5e:	11 27       	eor	r17, r17
     a60:	e2 16       	cp	r14, r18
     a62:	f3 06       	cpc	r15, r19
     a64:	04 07       	cpc	r16, r20
     a66:	15 07       	cpc	r17, r21
     a68:	08 f4       	brcc	.+2      	; 0xa6c <motion_next+0x1f8>
     a6a:	49 cf       	rjmp	.-366    	; 0x8fe <motion_next+0x8a>
     a6c:	ae 01       	movw	r20, r28
     a6e:	4f 5f       	subi	r20, 0xFF	; 255
     a70:	5f 4f       	sbci	r21, 0xFF	; 255
     a72:	be 01       	movw	r22, r28
     a74:	6b 5f       	subi	r22, 0xFB	; 251
     a76:	7f 4f       	sbci	r23, 0xFF	; 255
     a78:	80 91 28 02 	lds	r24, 0x0228
     a7c:	90 91 29 02 	lds	r25, 0x0229
     a80:	0e 94 ca 0c 	call	0x1994	; 0x1994 <curve_solve>
     a84:	20 e0       	ldi	r18, 0x00	; 0
     a86:	30 e0       	ldi	r19, 0x00	; 0
     a88:	40 e2       	ldi	r20, 0x20	; 32
     a8a:	51 e4       	ldi	r21, 0x41	; 65
     a8c:	69 81       	ldd	r22, Y+1	; 0x01
     a8e:	7a 81       	ldd	r23, Y+2	; 0x02
     a90:	8b 81       	ldd	r24, Y+3	; 0x03
     a92:	9c 81       	ldd	r25, Y+4	; 0x04
     a94:	0e 94 7c 10 	call	0x20f8	; 0x20f8 <__mulsf3>
     a98:	69 83       	std	Y+1, r22	; 0x01
     a9a:	7a 83       	std	Y+2, r23	; 0x02
     a9c:	8b 83       	std	Y+3, r24	; 0x03
     a9e:	9c 83       	std	Y+4, r25	; 0x04
     aa0:	20 e0       	ldi	r18, 0x00	; 0
     aa2:	30 e0       	ldi	r19, 0x00	; 0
     aa4:	40 e0       	ldi	r20, 0x00	; 0
     aa6:	5f e3       	ldi	r21, 0x3F	; 63
     aa8:	6d 81       	ldd	r22, Y+5	; 0x05
     aaa:	7e 81       	ldd	r23, Y+6	; 0x06
     aac:	8f 81       	ldd	r24, Y+7	; 0x07
     aae:	98 85       	ldd	r25, Y+8	; 0x08
     ab0:	0e 94 4f 10 	call	0x209e	; 0x209e <__addsf3>
     ab4:	0e 94 bd 12 	call	0x257a	; 0x257a <__fixsfsi>
     ab8:	ab 01       	movw	r20, r22
     aba:	bc 01       	movw	r22, r24
     abc:	61 e1       	ldi	r22, 0x11	; 17
     abe:	80 e1       	ldi	r24, 0x10	; 16
     ac0:	0e 94 3d 02 	call	0x47a	; 0x47a <registers_write_word>
     ac4:	20 e0       	ldi	r18, 0x00	; 0
     ac6:	30 e0       	ldi	r19, 0x00	; 0
     ac8:	40 e0       	ldi	r20, 0x00	; 0
     aca:	5f e3       	ldi	r21, 0x3F	; 63
     acc:	69 81       	ldd	r22, Y+1	; 0x01
     ace:	7a 81       	ldd	r23, Y+2	; 0x02
     ad0:	8b 81       	ldd	r24, Y+3	; 0x03
     ad2:	9c 81       	ldd	r25, Y+4	; 0x04
     ad4:	0e 94 4f 10 	call	0x209e	; 0x209e <__addsf3>
     ad8:	0e 94 bd 12 	call	0x257a	; 0x257a <__fixsfsi>
     adc:	ab 01       	movw	r20, r22
     ade:	bc 01       	movw	r22, r24
     ae0:	63 e1       	ldi	r22, 0x13	; 19
     ae2:	82 e1       	ldi	r24, 0x12	; 18
     ae4:	0e 94 3d 02 	call	0x47a	; 0x47a <registers_write_word>
     ae8:	28 96       	adiw	r28, 0x08	; 8
     aea:	0f b6       	in	r0, 0x3f	; 63
     aec:	f8 94       	cli
     aee:	de bf       	out	0x3e, r29	; 62
     af0:	0f be       	out	0x3f, r0	; 63
     af2:	cd bf       	out	0x3d, r28	; 61
     af4:	df 91       	pop	r29
     af6:	cf 91       	pop	r28
     af8:	1f 91       	pop	r17
     afa:	0f 91       	pop	r16
     afc:	ff 90       	pop	r15
     afe:	ef 90       	pop	r14
     b00:	df 90       	pop	r13
     b02:	cf 90       	pop	r12
     b04:	bf 90       	pop	r11
     b06:	af 90       	pop	r10
     b08:	08 95       	ret

00000b0a <motion_append>:
     b0a:	5f 92       	push	r5
     b0c:	6f 92       	push	r6
     b0e:	7f 92       	push	r7
     b10:	8f 92       	push	r8
     b12:	9f 92       	push	r9
     b14:	af 92       	push	r10
     b16:	bf 92       	push	r11
     b18:	cf 92       	push	r12
     b1a:	df 92       	push	r13
     b1c:	ef 92       	push	r14
     b1e:	ff 92       	push	r15
     b20:	0f 93       	push	r16
     b22:	1f 93       	push	r17
     b24:	cf 93       	push	r28
     b26:	df 93       	push	r29
     b28:	50 90 30 02 	lds	r5, 0x0230
     b2c:	53 94       	inc	r5
     b2e:	87 e0       	ldi	r24, 0x07	; 7
     b30:	58 22       	and	r5, r24
     b32:	80 91 27 02 	lds	r24, 0x0227
     b36:	58 16       	cp	r5, r24
     b38:	09 f4       	brne	.+2      	; 0xb3c <motion_append+0x32>
     b3a:	9b c0       	rjmp	.+310    	; 0xc72 <motion_append+0x168>
     b3c:	6b e1       	ldi	r22, 0x1B	; 27
     b3e:	8a e1       	ldi	r24, 0x1A	; 26
     b40:	0e 94 2a 02 	call	0x454	; 0x454 <registers_read_word>
     b44:	7c 01       	movw	r14, r24
     b46:	6d e1       	ldi	r22, 0x1D	; 29
     b48:	8c e1       	ldi	r24, 0x1C	; 28
     b4a:	0e 94 2a 02 	call	0x454	; 0x454 <registers_read_word>
     b4e:	6c 01       	movw	r12, r24
     b50:	6f e1       	ldi	r22, 0x1F	; 31
     b52:	8e e1       	ldi	r24, 0x1E	; 30
     b54:	0e 94 2a 02 	call	0x454	; 0x454 <registers_read_word>
     b58:	5c 01       	movw	r10, r24
     b5a:	69 e1       	ldi	r22, 0x19	; 25
     b5c:	88 e1       	ldi	r24, 0x18	; 24
     b5e:	0e 94 2a 02 	call	0x454	; 0x454 <registers_read_word>
     b62:	ec 01       	movw	r28, r24
     b64:	89 2b       	or	r24, r25
     b66:	09 f4       	brne	.+2      	; 0xb6a <motion_append+0x60>
     b68:	84 c0       	rjmp	.+264    	; 0xc72 <motion_append+0x168>
     b6a:	85 2d       	mov	r24, r5
     b6c:	99 27       	eor	r25, r25
     b6e:	88 0f       	add	r24, r24
     b70:	99 1f       	adc	r25, r25
     b72:	8c 01       	movw	r16, r24
     b74:	23 e0       	ldi	r18, 0x03	; 3
     b76:	00 0f       	add	r16, r16
     b78:	11 1f       	adc	r17, r17
     b7a:	2a 95       	dec	r18
     b7c:	e1 f7       	brne	.-8      	; 0xb76 <motion_append+0x6c>
     b7e:	08 1b       	sub	r16, r24
     b80:	19 0b       	sbc	r17, r25
     b82:	02 5f       	subi	r16, 0xF2	; 242
     b84:	1e 4f       	sbci	r17, 0xFE	; 254
     b86:	f8 01       	movw	r30, r16
     b88:	d1 83       	std	Z+1, r29	; 0x01
     b8a:	c0 83       	st	Z, r28
     b8c:	b7 01       	movw	r22, r14
     b8e:	88 27       	eor	r24, r24
     b90:	77 fd       	sbrc	r23, 7
     b92:	80 95       	com	r24
     b94:	98 2f       	mov	r25, r24
     b96:	0e 94 54 12 	call	0x24a8	; 0x24a8 <__floatsisf>
     b9a:	3b 01       	movw	r6, r22
     b9c:	4c 01       	movw	r8, r24
     b9e:	f8 01       	movw	r30, r16
     ba0:	62 83       	std	Z+2, r22	; 0x02
     ba2:	73 83       	std	Z+3, r23	; 0x03
     ba4:	84 83       	std	Z+4, r24	; 0x04
     ba6:	95 83       	std	Z+5, r25	; 0x05
     ba8:	b6 01       	movw	r22, r12
     baa:	88 27       	eor	r24, r24
     bac:	77 fd       	sbrc	r23, 7
     bae:	80 95       	com	r24
     bb0:	98 2f       	mov	r25, r24
     bb2:	0e 94 54 12 	call	0x24a8	; 0x24a8 <__floatsisf>
     bb6:	20 e0       	ldi	r18, 0x00	; 0
     bb8:	30 e0       	ldi	r19, 0x00	; 0
     bba:	40 e8       	ldi	r20, 0x80	; 128
     bbc:	5a e3       	ldi	r21, 0x3A	; 58
     bbe:	0e 94 7c 10 	call	0x20f8	; 0x20f8 <__mulsf3>
     bc2:	f8 01       	movw	r30, r16
     bc4:	66 83       	std	Z+6, r22	; 0x06
     bc6:	77 83       	std	Z+7, r23	; 0x07
     bc8:	80 87       	std	Z+8, r24	; 0x08
     bca:	91 87       	std	Z+9, r25	; 0x09
     bcc:	b5 01       	movw	r22, r10
     bce:	88 27       	eor	r24, r24
     bd0:	77 fd       	sbrc	r23, 7
     bd2:	80 95       	com	r24
     bd4:	98 2f       	mov	r25, r24
     bd6:	0e 94 54 12 	call	0x24a8	; 0x24a8 <__floatsisf>
     bda:	20 e0       	ldi	r18, 0x00	; 0
     bdc:	30 e0       	ldi	r19, 0x00	; 0
     bde:	40 e8       	ldi	r20, 0x80	; 128
     be0:	5a e3       	ldi	r21, 0x3A	; 58
     be2:	0e 94 7c 10 	call	0x20f8	; 0x20f8 <__mulsf3>
     be6:	f8 01       	movw	r30, r16
     be8:	62 87       	std	Z+10, r22	; 0x0a
     bea:	73 87       	std	Z+11, r23	; 0x0b
     bec:	84 87       	std	Z+12, r24	; 0x0c
     bee:	95 87       	std	Z+13, r25	; 0x0d
     bf0:	90 91 27 02 	lds	r25, 0x0227
     bf4:	80 91 30 02 	lds	r24, 0x0230
     bf8:	98 17       	cp	r25, r24
     bfa:	e9 f4       	brne	.+58     	; 0xc36 <motion_append+0x12c>
     bfc:	20 91 3b 02 	lds	r18, 0x023B
     c00:	30 91 3c 02 	lds	r19, 0x023C
     c04:	40 91 3d 02 	lds	r20, 0x023D
     c08:	50 91 3e 02 	lds	r21, 0x023E
     c0c:	80 e0       	ldi	r24, 0x00	; 0
     c0e:	90 e0       	ldi	r25, 0x00	; 0
     c10:	a0 e0       	ldi	r26, 0x00	; 0
     c12:	b0 e0       	ldi	r27, 0x00	; 0
     c14:	bf 93       	push	r27
     c16:	af 93       	push	r26
     c18:	9f 93       	push	r25
     c1a:	8f 93       	push	r24
     c1c:	5c 01       	movw	r10, r24
     c1e:	6d 01       	movw	r12, r26
     c20:	84 01       	movw	r16, r8
     c22:	73 01       	movw	r14, r6
     c24:	be 01       	movw	r22, r28
     c26:	80 e0       	ldi	r24, 0x00	; 0
     c28:	90 e0       	ldi	r25, 0x00	; 0
     c2a:	0e 94 c3 0b 	call	0x1786	; 0x1786 <curve_init>
     c2e:	0f 90       	pop	r0
     c30:	0f 90       	pop	r0
     c32:	0f 90       	pop	r0
     c34:	0f 90       	pop	r0
     c36:	9e 01       	movw	r18, r28
     c38:	44 27       	eor	r20, r20
     c3a:	55 27       	eor	r21, r21
     c3c:	80 91 2c 02 	lds	r24, 0x022C
     c40:	90 91 2d 02 	lds	r25, 0x022D
     c44:	a0 91 2e 02 	lds	r26, 0x022E
     c48:	b0 91 2f 02 	lds	r27, 0x022F
     c4c:	82 0f       	add	r24, r18
     c4e:	93 1f       	adc	r25, r19
     c50:	a4 1f       	adc	r26, r20
     c52:	b5 1f       	adc	r27, r21
     c54:	80 93 2c 02 	sts	0x022C, r24
     c58:	90 93 2d 02 	sts	0x022D, r25
     c5c:	a0 93 2e 02 	sts	0x022E, r26
     c60:	b0 93 2f 02 	sts	0x022F, r27
     c64:	50 92 30 02 	sts	0x0230, r5
     c68:	0e 94 51 03 	call	0x6a2	; 0x6a2 <motion_registers_reset>
     c6c:	81 e0       	ldi	r24, 0x01	; 1
     c6e:	90 e0       	ldi	r25, 0x00	; 0
     c70:	02 c0       	rjmp	.+4      	; 0xc76 <motion_append+0x16c>
     c72:	80 e0       	ldi	r24, 0x00	; 0
     c74:	90 e0       	ldi	r25, 0x00	; 0
     c76:	df 91       	pop	r29
     c78:	cf 91       	pop	r28
     c7a:	1f 91       	pop	r17
     c7c:	0f 91       	pop	r16
     c7e:	ff 90       	pop	r15
     c80:	ef 90       	pop	r14
     c82:	df 90       	pop	r13
     c84:	cf 90       	pop	r12
     c86:	bf 90       	pop	r11
     c88:	af 90       	pop	r10
     c8a:	9f 90       	pop	r9
     c8c:	8f 90       	pop	r8
     c8e:	7f 90       	pop	r7
     c90:	6f 90       	pop	r6
     c92:	5f 90       	pop	r5
     c94:	08 95       	ret

00000c96 <pid_init>:
     c96:	10 92 9d 01 	sts	0x019D, r1
     c9a:	10 92 9c 01 	sts	0x019C, r1
     c9e:	10 92 9f 01 	sts	0x019F, r1
     ca2:	10 92 9e 01 	sts	0x019E, r1
     ca6:	08 95       	ret

00000ca8 <pid_registers_defaults>:
     ca8:	10 92 0f 02 	sts	0x020F, r1
     cac:	40 e0       	ldi	r20, 0x00	; 0
     cae:	50 e0       	ldi	r21, 0x00	; 0
     cb0:	63 e2       	ldi	r22, 0x23	; 35
     cb2:	82 e2       	ldi	r24, 0x22	; 34
     cb4:	0e 94 3d 02 	call	0x47a	; 0x47a <registers_write_word>
     cb8:	40 e0       	ldi	r20, 0x00	; 0
     cba:	50 e0       	ldi	r21, 0x00	; 0
     cbc:	65 e2       	ldi	r22, 0x25	; 37
     cbe:	84 e2       	ldi	r24, 0x24	; 36
     cc0:	0e 94 3d 02 	call	0x47a	; 0x47a <registers_write_word>
     cc4:	40 e0       	ldi	r20, 0x00	; 0
     cc6:	50 e0       	ldi	r21, 0x00	; 0
     cc8:	67 e2       	ldi	r22, 0x27	; 39
     cca:	86 e2       	ldi	r24, 0x26	; 38
     ccc:	0e 94 3d 02 	call	0x47a	; 0x47a <registers_write_word>
     cd0:	40 e6       	ldi	r20, 0x60	; 96
     cd2:	50 e0       	ldi	r21, 0x00	; 0
     cd4:	6b e2       	ldi	r22, 0x2B	; 43
     cd6:	8a e2       	ldi	r24, 0x2A	; 42
     cd8:	0e 94 3d 02 	call	0x47a	; 0x47a <registers_write_word>
     cdc:	40 ea       	ldi	r20, 0xA0	; 160
     cde:	53 e0       	ldi	r21, 0x03	; 3
     ce0:	6d e2       	ldi	r22, 0x2D	; 45
     ce2:	8c e2       	ldi	r24, 0x2C	; 44
     ce4:	0e 94 3d 02 	call	0x47a	; 0x47a <registers_write_word>
     ce8:	10 92 1c 02 	sts	0x021C, r1
     cec:	08 95       	ret

00000cee <pid_position_to_pwm>:
     cee:	0f 93       	push	r16
     cf0:	1f 93       	push	r17
     cf2:	cf 93       	push	r28
     cf4:	df 93       	push	r29
     cf6:	ec 01       	movw	r28, r24
     cf8:	80 91 98 01 	lds	r24, 0x0198
     cfc:	90 91 99 01 	lds	r25, 0x0199
     d00:	a0 91 9a 01 	lds	r26, 0x019A
     d04:	b0 91 9b 01 	lds	r27, 0x019B
     d08:	9c 01       	movw	r18, r24
     d0a:	ad 01       	movw	r20, r26
     d0c:	55 95       	asr	r21
     d0e:	47 95       	ror	r20
     d10:	37 95       	ror	r19
     d12:	27 95       	ror	r18
     d14:	82 1b       	sub	r24, r18
     d16:	93 0b       	sbc	r25, r19
     d18:	a4 0b       	sbc	r26, r20
     d1a:	b5 0b       	sbc	r27, r21
     d1c:	9e 01       	movw	r18, r28
     d1e:	44 27       	eor	r20, r20
     d20:	37 fd       	sbrc	r19, 7
     d22:	40 95       	com	r20
     d24:	54 2f       	mov	r21, r20
     d26:	82 0f       	add	r24, r18
     d28:	93 1f       	adc	r25, r19
     d2a:	a4 1f       	adc	r26, r20
     d2c:	b5 1f       	adc	r27, r21
     d2e:	80 93 98 01 	sts	0x0198, r24
     d32:	90 93 99 01 	sts	0x0199, r25
     d36:	a0 93 9a 01 	sts	0x019A, r26
     d3a:	b0 93 9b 01 	sts	0x019B, r27
     d3e:	b5 95       	asr	r27
     d40:	a7 95       	ror	r26
     d42:	97 95       	ror	r25
     d44:	87 95       	ror	r24
     d46:	9c 01       	movw	r18, r24
     d48:	90 93 87 01 	sts	0x0187, r25
     d4c:	80 93 86 01 	sts	0x0186, r24
     d50:	40 91 9e 01 	lds	r20, 0x019E
     d54:	50 91 9f 01 	lds	r21, 0x019F
     d58:	24 1b       	sub	r18, r20
     d5a:	35 0b       	sbc	r19, r21
     d5c:	30 93 89 01 	sts	0x0189, r19
     d60:	20 93 88 01 	sts	0x0188, r18
     d64:	90 93 9f 01 	sts	0x019F, r25
     d68:	80 93 9e 01 	sts	0x019E, r24
     d6c:	61 e1       	ldi	r22, 0x11	; 17
     d6e:	80 e1       	ldi	r24, 0x10	; 16
     d70:	0e 94 2a 02 	call	0x454	; 0x454 <registers_read_word>
     d74:	90 93 91 01 	sts	0x0191, r25
     d78:	80 93 90 01 	sts	0x0190, r24
     d7c:	63 e1       	ldi	r22, 0x13	; 19
     d7e:	82 e1       	ldi	r24, 0x12	; 18
     d80:	0e 94 2a 02 	call	0x454	; 0x454 <registers_read_word>
     d84:	90 93 8f 01 	sts	0x018F, r25
     d88:	80 93 8e 01 	sts	0x018E, r24
     d8c:	6b e2       	ldi	r22, 0x2B	; 43
     d8e:	8a e2       	ldi	r24, 0x2A	; 42
     d90:	0e 94 2a 02 	call	0x454	; 0x454 <registers_read_word>
     d94:	90 93 8d 01 	sts	0x018D, r25
     d98:	80 93 8c 01 	sts	0x018C, r24
     d9c:	6d e2       	ldi	r22, 0x2D	; 45
     d9e:	8c e2       	ldi	r24, 0x2C	; 44
     da0:	0e 94 2a 02 	call	0x454	; 0x454 <registers_read_word>
     da4:	90 93 8b 01 	sts	0x018B, r25
     da8:	80 93 8a 01 	sts	0x018A, r24
     dac:	80 91 1c 02 	lds	r24, 0x021C
     db0:	88 23       	and	r24, r24
     db2:	a9 f1       	breq	.+106    	; 0xe1e <pid_position_to_pwm+0x130>
     db4:	0f ef       	ldi	r16, 0xFF	; 255
     db6:	13 e0       	ldi	r17, 0x03	; 3
     db8:	a8 01       	movw	r20, r16
     dba:	4c 1b       	sub	r20, r28
     dbc:	5d 0b       	sbc	r21, r29
     dbe:	69 e0       	ldi	r22, 0x09	; 9
     dc0:	88 e0       	ldi	r24, 0x08	; 8
     dc2:	0e 94 3d 02 	call	0x47a	; 0x47a <registers_write_word>
     dc6:	40 91 88 01 	lds	r20, 0x0188
     dca:	50 91 89 01 	lds	r21, 0x0189
     dce:	50 95       	com	r21
     dd0:	41 95       	neg	r20
     dd2:	5f 4f       	sbci	r21, 0xFF	; 255
     dd4:	6b e0       	ldi	r22, 0x0B	; 11
     dd6:	8a e0       	ldi	r24, 0x0A	; 10
     dd8:	0e 94 3d 02 	call	0x47a	; 0x47a <registers_write_word>
     ddc:	80 91 90 01 	lds	r24, 0x0190
     de0:	90 91 91 01 	lds	r25, 0x0191
     de4:	98 01       	movw	r18, r16
     de6:	28 1b       	sub	r18, r24
     de8:	39 0b       	sbc	r19, r25
     dea:	30 93 91 01 	sts	0x0191, r19
     dee:	20 93 90 01 	sts	0x0190, r18
     df2:	80 91 8c 01 	lds	r24, 0x018C
     df6:	90 91 8d 01 	lds	r25, 0x018D
     dfa:	98 01       	movw	r18, r16
     dfc:	28 1b       	sub	r18, r24
     dfe:	39 0b       	sbc	r19, r25
     e00:	30 93 8d 01 	sts	0x018D, r19
     e04:	20 93 8c 01 	sts	0x018C, r18
     e08:	80 91 8a 01 	lds	r24, 0x018A
     e0c:	90 91 8b 01 	lds	r25, 0x018B
     e10:	08 1b       	sub	r16, r24
     e12:	19 0b       	sbc	r17, r25
     e14:	10 93 8b 01 	sts	0x018B, r17
     e18:	00 93 8a 01 	sts	0x018A, r16
     e1c:	0d c0       	rjmp	.+26     	; 0xe38 <pid_position_to_pwm+0x14a>
     e1e:	ae 01       	movw	r20, r28
     e20:	69 e0       	ldi	r22, 0x09	; 9
     e22:	88 e0       	ldi	r24, 0x08	; 8
     e24:	0e 94 3d 02 	call	0x47a	; 0x47a <registers_write_word>
     e28:	40 91 88 01 	lds	r20, 0x0188
     e2c:	50 91 89 01 	lds	r21, 0x0189
     e30:	6b e0       	ldi	r22, 0x0B	; 11
     e32:	8a e0       	ldi	r24, 0x0A	; 10
     e34:	0e 94 3d 02 	call	0x47a	; 0x47a <registers_write_word>
     e38:	80 91 0f 02 	lds	r24, 0x020F
     e3c:	99 27       	eor	r25, r25
     e3e:	90 93 97 01 	sts	0x0197, r25
     e42:	80 93 96 01 	sts	0x0196, r24
     e46:	20 91 90 01 	lds	r18, 0x0190
     e4a:	30 91 91 01 	lds	r19, 0x0191
     e4e:	80 91 9c 01 	lds	r24, 0x019C
     e52:	90 91 9d 01 	lds	r25, 0x019D
     e56:	28 17       	cp	r18, r24
     e58:	39 07       	cpc	r19, r25
     e5a:	21 f4       	brne	.+8      	; 0xe64 <pid_position_to_pwm+0x176>
     e5c:	c0 91 86 01 	lds	r28, 0x0186
     e60:	d0 91 87 01 	lds	r29, 0x0187
     e64:	30 93 9d 01 	sts	0x019D, r19
     e68:	20 93 9c 01 	sts	0x019C, r18
     e6c:	80 91 8c 01 	lds	r24, 0x018C
     e70:	90 91 8d 01 	lds	r25, 0x018D
     e74:	28 17       	cp	r18, r24
     e76:	39 07       	cpc	r19, r25
     e78:	24 f4       	brge	.+8      	; 0xe82 <pid_position_to_pwm+0x194>
     e7a:	90 93 91 01 	sts	0x0191, r25
     e7e:	80 93 90 01 	sts	0x0190, r24
     e82:	20 91 8a 01 	lds	r18, 0x018A
     e86:	30 91 8b 01 	lds	r19, 0x018B
     e8a:	80 91 90 01 	lds	r24, 0x0190
     e8e:	90 91 91 01 	lds	r25, 0x0191
     e92:	28 17       	cp	r18, r24
     e94:	39 07       	cpc	r19, r25
     e96:	24 f4       	brge	.+8      	; 0xea0 <pid_position_to_pwm+0x1b2>
     e98:	30 93 91 01 	sts	0x0191, r19
     e9c:	20 93 90 01 	sts	0x0190, r18
     ea0:	80 91 90 01 	lds	r24, 0x0190
     ea4:	90 91 91 01 	lds	r25, 0x0191
     ea8:	8c 1b       	sub	r24, r28
     eaa:	9d 0b       	sbc	r25, r29
     eac:	90 93 95 01 	sts	0x0195, r25
     eb0:	80 93 94 01 	sts	0x0194, r24
     eb4:	80 91 8e 01 	lds	r24, 0x018E
     eb8:	90 91 8f 01 	lds	r25, 0x018F
     ebc:	20 91 88 01 	lds	r18, 0x0188
     ec0:	30 91 89 01 	lds	r19, 0x0189
     ec4:	82 1b       	sub	r24, r18
     ec6:	93 0b       	sbc	r25, r19
     ec8:	90 93 93 01 	sts	0x0193, r25
     ecc:	80 93 92 01 	sts	0x0192, r24
     ed0:	63 e2       	ldi	r22, 0x23	; 35
     ed2:	82 e2       	ldi	r24, 0x22	; 34
     ed4:	0e 94 2a 02 	call	0x454	; 0x454 <registers_read_word>
     ed8:	90 93 7f 01 	sts	0x017F, r25
     edc:	80 93 7e 01 	sts	0x017E, r24
     ee0:	65 e2       	ldi	r22, 0x25	; 37
     ee2:	84 e2       	ldi	r24, 0x24	; 36
     ee4:	0e 94 2a 02 	call	0x454	; 0x454 <registers_read_word>
     ee8:	ec 01       	movw	r28, r24
     eea:	90 93 81 01 	sts	0x0181, r25
     eee:	80 93 80 01 	sts	0x0180, r24
     ef2:	10 92 82 01 	sts	0x0182, r1
     ef6:	10 92 83 01 	sts	0x0183, r1
     efa:	10 92 84 01 	sts	0x0184, r1
     efe:	10 92 85 01 	sts	0x0185, r1
     f02:	60 91 94 01 	lds	r22, 0x0194
     f06:	70 91 95 01 	lds	r23, 0x0195
     f0a:	80 91 96 01 	lds	r24, 0x0196
     f0e:	90 91 97 01 	lds	r25, 0x0197
     f12:	86 17       	cp	r24, r22
     f14:	97 07       	cpc	r25, r23
     f16:	34 f0       	brlt	.+12     	; 0xf24 <pid_position_to_pwm+0x236>
     f18:	90 95       	com	r25
     f1a:	81 95       	neg	r24
     f1c:	9f 4f       	sbci	r25, 0xFF	; 255
     f1e:	68 17       	cp	r22, r24
     f20:	79 07       	cpc	r23, r25
     f22:	a4 f4       	brge	.+40     	; 0xf4c <pid_position_to_pwm+0x25e>
     f24:	88 27       	eor	r24, r24
     f26:	77 fd       	sbrc	r23, 7
     f28:	80 95       	com	r24
     f2a:	98 2f       	mov	r25, r24
     f2c:	20 91 7e 01 	lds	r18, 0x017E
     f30:	30 91 7f 01 	lds	r19, 0x017F
     f34:	44 27       	eor	r20, r20
     f36:	55 27       	eor	r21, r21
     f38:	0e 94 d5 14 	call	0x29aa	; 0x29aa <__mulsi3>
     f3c:	60 93 82 01 	sts	0x0182, r22
     f40:	70 93 83 01 	sts	0x0183, r23
     f44:	80 93 84 01 	sts	0x0184, r24
     f48:	90 93 85 01 	sts	0x0185, r25
     f4c:	60 91 92 01 	lds	r22, 0x0192
     f50:	70 91 93 01 	lds	r23, 0x0193
     f54:	88 27       	eor	r24, r24
     f56:	77 fd       	sbrc	r23, 7
     f58:	80 95       	com	r24
     f5a:	98 2f       	mov	r25, r24
     f5c:	9e 01       	movw	r18, r28
     f5e:	44 27       	eor	r20, r20
     f60:	55 27       	eor	r21, r21
     f62:	0e 94 d5 14 	call	0x29aa	; 0x29aa <__mulsi3>
     f66:	20 91 82 01 	lds	r18, 0x0182
     f6a:	30 91 83 01 	lds	r19, 0x0183
     f6e:	40 91 84 01 	lds	r20, 0x0184
     f72:	50 91 85 01 	lds	r21, 0x0185
     f76:	26 0f       	add	r18, r22
     f78:	37 1f       	adc	r19, r23
     f7a:	48 1f       	adc	r20, r24
     f7c:	59 1f       	adc	r21, r25
     f7e:	23 2f       	mov	r18, r19
     f80:	34 2f       	mov	r19, r20
     f82:	45 2f       	mov	r20, r21
     f84:	55 27       	eor	r21, r21
     f86:	47 fd       	sbrc	r20, 7
     f88:	5a 95       	dec	r21
     f8a:	20 93 82 01 	sts	0x0182, r18
     f8e:	30 93 83 01 	sts	0x0183, r19
     f92:	40 93 84 01 	sts	0x0184, r20
     f96:	50 93 85 01 	sts	0x0185, r21
     f9a:	2f 3f       	cpi	r18, 0xFF	; 255
     f9c:	31 05       	cpc	r19, r1
     f9e:	41 05       	cpc	r20, r1
     fa0:	51 05       	cpc	r21, r1
     fa2:	31 f0       	breq	.+12     	; 0xfb0 <pid_position_to_pwm+0x2c2>
     fa4:	2c f0       	brlt	.+10     	; 0xfb0 <pid_position_to_pwm+0x2c2>
     fa6:	8f ef       	ldi	r24, 0xFF	; 255
     fa8:	90 e0       	ldi	r25, 0x00	; 0
     faa:	a0 e0       	ldi	r26, 0x00	; 0
     fac:	b0 e0       	ldi	r27, 0x00	; 0
     fae:	09 c0       	rjmp	.+18     	; 0xfc2 <pid_position_to_pwm+0x2d4>
     fb0:	21 50       	subi	r18, 0x01	; 1
     fb2:	3f 4f       	sbci	r19, 0xFF	; 255
     fb4:	4f 4f       	sbci	r20, 0xFF	; 255
     fb6:	5f 4f       	sbci	r21, 0xFF	; 255
     fb8:	64 f4       	brge	.+24     	; 0xfd2 <pid_position_to_pwm+0x2e4>
     fba:	81 e0       	ldi	r24, 0x01	; 1
     fbc:	9f ef       	ldi	r25, 0xFF	; 255
     fbe:	af ef       	ldi	r26, 0xFF	; 255
     fc0:	bf ef       	ldi	r27, 0xFF	; 255
     fc2:	80 93 82 01 	sts	0x0182, r24
     fc6:	90 93 83 01 	sts	0x0183, r25
     fca:	a0 93 84 01 	sts	0x0184, r26
     fce:	b0 93 85 01 	sts	0x0185, r27
     fd2:	80 91 82 01 	lds	r24, 0x0182
     fd6:	90 91 83 01 	lds	r25, 0x0183
     fda:	df 91       	pop	r29
     fdc:	cf 91       	pop	r28
     fde:	1f 91       	pop	r17
     fe0:	0f 91       	pop	r16
     fe2:	08 95       	ret

00000fe4 <power_update>:
     fe4:	20 91 a0 01 	lds	r18, 0x01A0
     fe8:	e2 2f       	mov	r30, r18
     fea:	ff 27       	eor	r31, r31
     fec:	ee 0f       	add	r30, r30
     fee:	ff 1f       	adc	r31, r31
     ff0:	ef 55       	subi	r30, 0x5F	; 95
     ff2:	fe 4f       	sbci	r31, 0xFE	; 254
     ff4:	91 83       	std	Z+1, r25	; 0x01
     ff6:	80 83       	st	Z, r24
     ff8:	2f 5f       	subi	r18, 0xFF	; 255
     ffa:	27 70       	andi	r18, 0x07	; 7
     ffc:	20 93 a0 01 	sts	0x01A0, r18
    1000:	40 e0       	ldi	r20, 0x00	; 0
    1002:	50 e0       	ldi	r21, 0x00	; 0
    1004:	e1 ea       	ldi	r30, 0xA1	; 161
    1006:	f1 e0       	ldi	r31, 0x01	; 1
    1008:	81 91       	ld	r24, Z+
    100a:	91 91       	ld	r25, Z+
    100c:	48 0f       	add	r20, r24
    100e:	59 1f       	adc	r21, r25
    1010:	81 e0       	ldi	r24, 0x01	; 1
    1012:	e1 3b       	cpi	r30, 0xB1	; 177
    1014:	f8 07       	cpc	r31, r24
    1016:	c1 f7       	brne	.-16     	; 0x1008 <power_update+0x24>
    1018:	83 e0       	ldi	r24, 0x03	; 3
    101a:	56 95       	lsr	r21
    101c:	47 95       	ror	r20
    101e:	8a 95       	dec	r24
    1020:	e1 f7       	brne	.-8      	; 0x101a <power_update+0x36>
    1022:	6d e0       	ldi	r22, 0x0D	; 13
    1024:	8c e0       	ldi	r24, 0x0C	; 12
    1026:	0e 94 3d 02 	call	0x47a	; 0x47a <registers_write_word>
    102a:	08 95       	ret

0000102c <power_init>:
    102c:	10 92 a0 01 	sts	0x01A0, r1
    1030:	e1 ea       	ldi	r30, 0xA1	; 161
    1032:	f1 e0       	ldi	r31, 0x01	; 1
    1034:	11 92       	st	Z+, r1
    1036:	11 92       	st	Z+, r1
    1038:	81 e0       	ldi	r24, 0x01	; 1
    103a:	e1 3b       	cpi	r30, 0xB1	; 177
    103c:	f8 07       	cpc	r31, r24
    103e:	d1 f7       	brne	.-12     	; 0x1034 <power_init+0x8>
    1040:	40 e0       	ldi	r20, 0x00	; 0
    1042:	50 e0       	ldi	r21, 0x00	; 0
    1044:	6d e0       	ldi	r22, 0x0D	; 13
    1046:	8c e0       	ldi	r24, 0x0C	; 12
    1048:	0e 94 3d 02 	call	0x47a	; 0x47a <registers_write_word>
    104c:	08 95       	ret

0000104e <twi_registers_read>:
    104e:	98 2f       	mov	r25, r24
    1050:	9f 77       	andi	r25, 0x7F	; 127
    1052:	98 33       	cpi	r25, 0x38	; 56
    1054:	28 f4       	brcc	.+10     	; 0x1060 <twi_registers_read+0x12>
    1056:	e9 2f       	mov	r30, r25
    1058:	ff 27       	eor	r31, r31
    105a:	e2 51       	subi	r30, 0x12	; 18
    105c:	fe 4f       	sbci	r31, 0xFE	; 254
    105e:	32 c0       	rjmp	.+100    	; 0x10c4 <twi_registers_read+0x76>
    1060:	9f 33       	cpi	r25, 0x3F	; 63
    1062:	98 f1       	brcs	.+102    	; 0x10ca <twi_registers_read+0x7c>
    1064:	9f 33       	cpi	r25, 0x3F	; 63
    1066:	19 f4       	brne	.+6      	; 0x106e <twi_registers_read+0x20>
    1068:	80 91 2d 02 	lds	r24, 0x022D
    106c:	2c c0       	rjmp	.+88     	; 0x10c6 <twi_registers_read+0x78>
    106e:	97 fd       	sbrc	r25, 7
    1070:	2c c0       	rjmp	.+88     	; 0x10ca <twi_registers_read+0x7c>
    1072:	20 91 2d 02 	lds	r18, 0x022D
    1076:	22 30       	cpi	r18, 0x02	; 2
    1078:	c9 f4       	brne	.+50     	; 0x10ac <twi_registers_read+0x5e>
    107a:	90 35       	cpi	r25, 0x50	; 80
    107c:	30 f4       	brcc	.+12     	; 0x108a <twi_registers_read+0x3c>
    107e:	90 54       	subi	r25, 0x40	; 64
    1080:	e9 2f       	mov	r30, r25
    1082:	ff 27       	eor	r31, r31
    1084:	e9 53       	subi	r30, 0x39	; 57
    1086:	fd 4f       	sbci	r31, 0xFD	; 253
    1088:	1d c0       	rjmp	.+58     	; 0x10c4 <twi_registers_read+0x76>
    108a:	90 36       	cpi	r25, 0x60	; 96
    108c:	78 f4       	brcc	.+30     	; 0x10ac <twi_registers_read+0x5e>
    108e:	90 55       	subi	r25, 0x50	; 80
    1090:	e9 2f       	mov	r30, r25
    1092:	ff 27       	eor	r31, r31
    1094:	e9 53       	subi	r30, 0x39	; 57
    1096:	fd 4f       	sbci	r31, 0xFD	; 253
    1098:	80 81       	ld	r24, Z
    109a:	e8 2f       	mov	r30, r24
    109c:	ff 27       	eor	r31, r31
    109e:	9e 2f       	mov	r25, r30
    10a0:	e0 35       	cpi	r30, 0x50	; 80
    10a2:	20 f4       	brcc	.+8      	; 0x10ac <twi_registers_read+0x5e>
    10a4:	8e 2f       	mov	r24, r30
    10a6:	0e 94 27 08 	call	0x104e	; 0x104e <twi_registers_read>
    10aa:	0d c0       	rjmp	.+26     	; 0x10c6 <twi_registers_read+0x78>
    10ac:	90 54       	subi	r25, 0x40	; 64
    10ae:	e2 2f       	mov	r30, r18
    10b0:	ff 27       	eor	r31, r31
    10b2:	86 e0       	ldi	r24, 0x06	; 6
    10b4:	ee 0f       	add	r30, r30
    10b6:	ff 1f       	adc	r31, r31
    10b8:	8a 95       	dec	r24
    10ba:	e1 f7       	brne	.-8      	; 0x10b4 <twi_registers_read+0x66>
    10bc:	e9 5b       	subi	r30, 0xB9	; 185
    10be:	fd 4f       	sbci	r31, 0xFD	; 253
    10c0:	e9 0f       	add	r30, r25
    10c2:	f1 1d       	adc	r31, r1
    10c4:	80 81       	ld	r24, Z
    10c6:	99 27       	eor	r25, r25
    10c8:	08 95       	ret
    10ca:	80 e0       	ldi	r24, 0x00	; 0
    10cc:	90 e0       	ldi	r25, 0x00	; 0
    10ce:	08 95       	ret

000010d0 <twi_registers_write>:
    10d0:	e8 2f       	mov	r30, r24
    10d2:	80 91 f3 01 	lds	r24, 0x01F3
    10d6:	28 2f       	mov	r18, r24
    10d8:	33 27       	eor	r19, r19
    10da:	22 70       	andi	r18, 0x02	; 2
    10dc:	30 70       	andi	r19, 0x00	; 0
    10de:	ef 77       	andi	r30, 0x7F	; 127
    10e0:	e0 31       	cpi	r30, 0x10	; 16
    10e2:	d8 f1       	brcs	.+118    	; 0x115a <twi_registers_write+0x8a>
    10e4:	e0 32       	cpi	r30, 0x20	; 32
    10e6:	28 f0       	brcs	.+10     	; 0x10f2 <twi_registers_write+0x22>
    10e8:	21 15       	cp	r18, r1
    10ea:	31 05       	cpc	r19, r1
    10ec:	b1 f1       	breq	.+108    	; 0x115a <twi_registers_write+0x8a>
    10ee:	e8 33       	cpi	r30, 0x38	; 56
    10f0:	20 f4       	brcc	.+8      	; 0x10fa <twi_registers_write+0x2a>
    10f2:	ff 27       	eor	r31, r31
    10f4:	e2 51       	subi	r30, 0x12	; 18
    10f6:	fe 4f       	sbci	r31, 0xFE	; 254
    10f8:	1a c0       	rjmp	.+52     	; 0x112e <twi_registers_write+0x5e>
    10fa:	ef 33       	cpi	r30, 0x3F	; 63
    10fc:	70 f1       	brcs	.+92     	; 0x115a <twi_registers_write+0x8a>
    10fe:	ef 33       	cpi	r30, 0x3F	; 63
    1100:	31 f4       	brne	.+12     	; 0x110e <twi_registers_write+0x3e>
    1102:	63 30       	cpi	r22, 0x03	; 3
    1104:	08 f0       	brcs	.+2      	; 0x1108 <twi_registers_write+0x38>
    1106:	62 e0       	ldi	r22, 0x02	; 2
    1108:	60 93 2d 02 	sts	0x022D, r22
    110c:	08 95       	ret
    110e:	e7 fd       	sbrc	r30, 7
    1110:	24 c0       	rjmp	.+72     	; 0x115a <twi_registers_write+0x8a>
    1112:	90 91 2d 02 	lds	r25, 0x022D
    1116:	a9 2f       	mov	r26, r25
    1118:	bb 27       	eor	r27, r27
    111a:	92 30       	cpi	r25, 0x02	; 2
    111c:	98 f0       	brcs	.+38     	; 0x1144 <twi_registers_write+0x74>
    111e:	92 30       	cpi	r25, 0x02	; 2
    1120:	e1 f4       	brne	.+56     	; 0x115a <twi_registers_write+0x8a>
    1122:	e0 35       	cpi	r30, 0x50	; 80
    1124:	30 f4       	brcc	.+12     	; 0x1132 <twi_registers_write+0x62>
    1126:	e0 54       	subi	r30, 0x40	; 64
    1128:	ff 27       	eor	r31, r31
    112a:	e9 53       	subi	r30, 0x39	; 57
    112c:	fd 4f       	sbci	r31, 0xFD	; 253
    112e:	60 83       	st	Z, r22
    1130:	08 95       	ret
    1132:	e0 36       	cpi	r30, 0x60	; 96
    1134:	38 f4       	brcc	.+14     	; 0x1144 <twi_registers_write+0x74>
    1136:	e0 55       	subi	r30, 0x50	; 80
    1138:	ff 27       	eor	r31, r31
    113a:	e9 53       	subi	r30, 0x39	; 57
    113c:	fd 4f       	sbci	r31, 0xFD	; 253
    113e:	e0 81       	ld	r30, Z
    1140:	e0 35       	cpi	r30, 0x50	; 80
    1142:	68 f2       	brcs	.-102    	; 0x10de <twi_registers_write+0xe>
    1144:	e0 54       	subi	r30, 0x40	; 64
    1146:	96 e0       	ldi	r25, 0x06	; 6
    1148:	aa 0f       	add	r26, r26
    114a:	bb 1f       	adc	r27, r27
    114c:	9a 95       	dec	r25
    114e:	e1 f7       	brne	.-8      	; 0x1148 <twi_registers_write+0x78>
    1150:	a9 5b       	subi	r26, 0xB9	; 185
    1152:	bd 4f       	sbci	r27, 0xFD	; 253
    1154:	ae 0f       	add	r26, r30
    1156:	b1 1d       	adc	r27, r1
    1158:	6c 93       	st	X, r22
    115a:	08 95       	ret

0000115c <general_call_disable>:
    115c:	ea eb       	ldi	r30, 0xBA	; 186
    115e:	f0 e0       	ldi	r31, 0x00	; 0
    1160:	80 81       	ld	r24, Z
    1162:	8e 7f       	andi	r24, 0xFE	; 254
    1164:	80 83       	st	Z, r24
    1166:	80 91 f3 01 	lds	r24, 0x01F3
    116a:	87 7f       	andi	r24, 0xF7	; 247
    116c:	80 93 f3 01 	sts	0x01F3, r24
    1170:	08 95       	ret

00001172 <general_call_start_reset>:
    1172:	80 91 f3 01 	lds	r24, 0x01F3
    1176:	8f 7d       	andi	r24, 0xDF	; 223
    1178:	80 93 f3 01 	sts	0x01F3, r24
    117c:	08 95       	ret

0000117e <general_call_start_wait_reset>:
    117e:	80 91 f3 01 	lds	r24, 0x01F3
    1182:	8f 7e       	andi	r24, 0xEF	; 239
    1184:	80 93 f3 01 	sts	0x01F3, r24
    1188:	08 95       	ret

0000118a <twi_receive_byte>:
    118a:	90 91 b3 01 	lds	r25, 0x01B3
    118e:	80 91 b4 01 	lds	r24, 0x01B4
    1192:	98 17       	cp	r25, r24
    1194:	d1 f3       	breq	.-12     	; 0x118a <twi_receive_byte>
    1196:	80 91 b4 01 	lds	r24, 0x01B4
    119a:	8f 5f       	subi	r24, 0xFF	; 255
    119c:	83 70       	andi	r24, 0x03	; 3
    119e:	80 93 b4 01 	sts	0x01B4, r24
    11a2:	e0 91 b4 01 	lds	r30, 0x01B4
    11a6:	ff 27       	eor	r31, r31
    11a8:	eb 54       	subi	r30, 0x4B	; 75
    11aa:	fe 4f       	sbci	r31, 0xFE	; 254
    11ac:	80 81       	ld	r24, Z
    11ae:	99 27       	eor	r25, r25
    11b0:	08 95       	ret

000011b2 <twi_data_in_receive_buffer>:
    11b2:	90 91 b3 01 	lds	r25, 0x01B3
    11b6:	80 91 b4 01 	lds	r24, 0x01B4
    11ba:	20 e0       	ldi	r18, 0x00	; 0
    11bc:	30 e0       	ldi	r19, 0x00	; 0
    11be:	98 17       	cp	r25, r24
    11c0:	11 f0       	breq	.+4      	; 0x11c6 <twi_data_in_receive_buffer+0x14>
    11c2:	21 e0       	ldi	r18, 0x01	; 1
    11c4:	30 e0       	ldi	r19, 0x00	; 0
    11c6:	c9 01       	movw	r24, r18
    11c8:	08 95       	ret

000011ca <__vector_24>:
    11ca:	1f 92       	push	r1
    11cc:	0f 92       	push	r0
    11ce:	0f b6       	in	r0, 0x3f	; 63
    11d0:	0f 92       	push	r0
    11d2:	11 24       	eor	r1, r1
    11d4:	0f 93       	push	r16
    11d6:	1f 93       	push	r17
    11d8:	2f 93       	push	r18
    11da:	3f 93       	push	r19
    11dc:	4f 93       	push	r20
    11de:	5f 93       	push	r21
    11e0:	6f 93       	push	r22
    11e2:	7f 93       	push	r23
    11e4:	8f 93       	push	r24
    11e6:	9f 93       	push	r25
    11e8:	af 93       	push	r26
    11ea:	bf 93       	push	r27
    11ec:	ef 93       	push	r30
    11ee:	ff 93       	push	r31
    11f0:	80 91 b9 00 	lds	r24, 0x00B9
    11f4:	88 39       	cpi	r24, 0x98	; 152
    11f6:	09 f4       	brne	.+2      	; 0x11fa <__vector_24+0x30>
    11f8:	d0 c0       	rjmp	.+416    	; 0x139a <__vector_24+0x1d0>
    11fa:	89 39       	cpi	r24, 0x99	; 153
    11fc:	a8 f4       	brcc	.+42     	; 0x1228 <__vector_24+0x5e>
    11fe:	80 37       	cpi	r24, 0x70	; 112
    1200:	09 f4       	brne	.+2      	; 0x1204 <__vector_24+0x3a>
    1202:	48 c0       	rjmp	.+144    	; 0x1294 <__vector_24+0xca>
    1204:	81 37       	cpi	r24, 0x71	; 113
    1206:	38 f4       	brcc	.+14     	; 0x1216 <__vector_24+0x4c>
    1208:	88 23       	and	r24, r24
    120a:	09 f4       	brne	.+2      	; 0x120e <__vector_24+0x44>
    120c:	c4 c0       	rjmp	.+392    	; 0x1396 <__vector_24+0x1cc>
    120e:	80 36       	cpi	r24, 0x60	; 96
    1210:	09 f0       	breq	.+2      	; 0x1214 <__vector_24+0x4a>
    1212:	c3 c0       	rjmp	.+390    	; 0x139a <__vector_24+0x1d0>
    1214:	3f c0       	rjmp	.+126    	; 0x1294 <__vector_24+0xca>
    1216:	88 38       	cpi	r24, 0x88	; 136
    1218:	09 f4       	brne	.+2      	; 0x121c <__vector_24+0x52>
    121a:	bf c0       	rjmp	.+382    	; 0x139a <__vector_24+0x1d0>
    121c:	80 39       	cpi	r24, 0x90	; 144
    121e:	e9 f1       	breq	.+122    	; 0x129a <__vector_24+0xd0>
    1220:	80 38       	cpi	r24, 0x80	; 128
    1222:	09 f0       	breq	.+2      	; 0x1226 <__vector_24+0x5c>
    1224:	ba c0       	rjmp	.+372    	; 0x139a <__vector_24+0x1d0>
    1226:	39 c0       	rjmp	.+114    	; 0x129a <__vector_24+0xd0>
    1228:	88 3b       	cpi	r24, 0xB8	; 184
    122a:	81 f0       	breq	.+32     	; 0x124c <__vector_24+0x82>
    122c:	89 3b       	cpi	r24, 0xB9	; 185
    122e:	38 f4       	brcc	.+14     	; 0x123e <__vector_24+0x74>
    1230:	80 3a       	cpi	r24, 0xA0	; 160
    1232:	09 f4       	brne	.+2      	; 0x1236 <__vector_24+0x6c>
    1234:	b2 c0       	rjmp	.+356    	; 0x139a <__vector_24+0x1d0>
    1236:	88 3a       	cpi	r24, 0xA8	; 168
    1238:	09 f0       	breq	.+2      	; 0x123c <__vector_24+0x72>
    123a:	af c0       	rjmp	.+350    	; 0x139a <__vector_24+0x1d0>
    123c:	07 c0       	rjmp	.+14     	; 0x124c <__vector_24+0x82>
    123e:	88 3c       	cpi	r24, 0xC8	; 200
    1240:	09 f4       	brne	.+2      	; 0x1244 <__vector_24+0x7a>
    1242:	ab c0       	rjmp	.+342    	; 0x139a <__vector_24+0x1d0>
    1244:	88 3f       	cpi	r24, 0xF8	; 248
    1246:	09 f4       	brne	.+2      	; 0x124a <__vector_24+0x80>
    1248:	ab c0       	rjmp	.+342    	; 0x13a0 <__vector_24+0x1d6>
    124a:	a7 c0       	rjmp	.+334    	; 0x139a <__vector_24+0x1d0>
    124c:	80 91 b1 01 	lds	r24, 0x01B1
    1250:	0e 94 27 08 	call	0x104e	; 0x104e <twi_registers_read>
    1254:	98 2f       	mov	r25, r24
    1256:	80 91 b2 01 	lds	r24, 0x01B2
    125a:	84 30       	cpi	r24, 0x04	; 4
    125c:	89 f4       	brne	.+34     	; 0x1280 <__vector_24+0xb6>
    125e:	30 91 b9 01 	lds	r19, 0x01B9
    1262:	80 91 ba 01 	lds	r24, 0x01BA
    1266:	20 91 bb 01 	lds	r18, 0x01BB
    126a:	38 17       	cp	r19, r24
    126c:	38 f4       	brcc	.+14     	; 0x127c <__vector_24+0xb2>
    126e:	29 0f       	add	r18, r25
    1270:	20 93 bb 01 	sts	0x01BB, r18
    1274:	3f 5f       	subi	r19, 0xFF	; 255
    1276:	30 93 b9 01 	sts	0x01B9, r19
    127a:	02 c0       	rjmp	.+4      	; 0x1280 <__vector_24+0xb6>
    127c:	92 2f       	mov	r25, r18
    127e:	05 c0       	rjmp	.+10     	; 0x128a <__vector_24+0xc0>
    1280:	80 91 b1 01 	lds	r24, 0x01B1
    1284:	8f 5f       	subi	r24, 0xFF	; 255
    1286:	80 93 b1 01 	sts	0x01B1, r24
    128a:	89 2f       	mov	r24, r25
    128c:	99 27       	eor	r25, r25
    128e:	80 93 bb 00 	sts	0x00BB, r24
    1292:	83 c0       	rjmp	.+262    	; 0x139a <__vector_24+0x1d0>
    1294:	10 92 b2 01 	sts	0x01B2, r1
    1298:	80 c0       	rjmp	.+256    	; 0x139a <__vector_24+0x1d0>
    129a:	60 91 bb 00 	lds	r22, 0x00BB
    129e:	80 91 b2 01 	lds	r24, 0x01B2
    12a2:	82 30       	cpi	r24, 0x02	; 2
    12a4:	89 f1       	breq	.+98     	; 0x1308 <__vector_24+0x13e>
    12a6:	83 30       	cpi	r24, 0x03	; 3
    12a8:	30 f4       	brcc	.+12     	; 0x12b6 <__vector_24+0xec>
    12aa:	88 23       	and	r24, r24
    12ac:	51 f0       	breq	.+20     	; 0x12c2 <__vector_24+0xf8>
    12ae:	81 30       	cpi	r24, 0x01	; 1
    12b0:	09 f0       	breq	.+2      	; 0x12b4 <__vector_24+0xea>
    12b2:	73 c0       	rjmp	.+230    	; 0x139a <__vector_24+0x1d0>
    12b4:	1f c0       	rjmp	.+62     	; 0x12f4 <__vector_24+0x12a>
    12b6:	83 30       	cpi	r24, 0x03	; 3
    12b8:	89 f1       	breq	.+98     	; 0x131c <__vector_24+0x152>
    12ba:	84 30       	cpi	r24, 0x04	; 4
    12bc:	09 f0       	breq	.+2      	; 0x12c0 <__vector_24+0xf6>
    12be:	6d c0       	rjmp	.+218    	; 0x139a <__vector_24+0x1d0>
    12c0:	38 c0       	rjmp	.+112    	; 0x1332 <__vector_24+0x168>
    12c2:	67 fd       	sbrc	r22, 7
    12c4:	04 c0       	rjmp	.+8      	; 0x12ce <__vector_24+0x104>
    12c6:	60 93 b1 01 	sts	0x01B1, r22
    12ca:	81 e0       	ldi	r24, 0x01	; 1
    12cc:	03 c0       	rjmp	.+6      	; 0x12d4 <__vector_24+0x10a>
    12ce:	61 38       	cpi	r22, 0x81	; 129
    12d0:	21 f4       	brne	.+8      	; 0x12da <__vector_24+0x110>
    12d2:	82 e0       	ldi	r24, 0x02	; 2
    12d4:	80 93 b2 01 	sts	0x01B2, r24
    12d8:	60 c0       	rjmp	.+192    	; 0x139a <__vector_24+0x1d0>
    12da:	80 91 b3 01 	lds	r24, 0x01B3
    12de:	8f 5f       	subi	r24, 0xFF	; 255
    12e0:	83 70       	andi	r24, 0x03	; 3
    12e2:	80 93 b3 01 	sts	0x01B3, r24
    12e6:	e0 91 b3 01 	lds	r30, 0x01B3
    12ea:	ff 27       	eor	r31, r31
    12ec:	eb 54       	subi	r30, 0x4B	; 75
    12ee:	fe 4f       	sbci	r31, 0xFE	; 254
    12f0:	60 83       	st	Z, r22
    12f2:	53 c0       	rjmp	.+166    	; 0x139a <__vector_24+0x1d0>
    12f4:	80 91 b1 01 	lds	r24, 0x01B1
    12f8:	0e 94 68 08 	call	0x10d0	; 0x10d0 <twi_registers_write>
    12fc:	80 91 b1 01 	lds	r24, 0x01B1
    1300:	8f 5f       	subi	r24, 0xFF	; 255
    1302:	80 93 b1 01 	sts	0x01B1, r24
    1306:	49 c0       	rjmp	.+146    	; 0x139a <__vector_24+0x1d0>
    1308:	86 2f       	mov	r24, r22
    130a:	8f 70       	andi	r24, 0x0F	; 15
    130c:	80 93 ba 01 	sts	0x01BA, r24
    1310:	80 93 bb 01 	sts	0x01BB, r24
    1314:	10 92 b9 01 	sts	0x01B9, r1
    1318:	83 e0       	ldi	r24, 0x03	; 3
    131a:	dc cf       	rjmp	.-72     	; 0x12d4 <__vector_24+0x10a>
    131c:	80 91 bb 01 	lds	r24, 0x01BB
    1320:	60 93 b1 01 	sts	0x01B1, r22
    1324:	90 91 b1 01 	lds	r25, 0x01B1
    1328:	89 0f       	add	r24, r25
    132a:	80 93 bb 01 	sts	0x01BB, r24
    132e:	84 e0       	ldi	r24, 0x04	; 4
    1330:	d1 cf       	rjmp	.-94     	; 0x12d4 <__vector_24+0x10a>
    1332:	80 91 b9 01 	lds	r24, 0x01B9
    1336:	00 91 ba 01 	lds	r16, 0x01BA
    133a:	20 91 bb 01 	lds	r18, 0x01BB
    133e:	80 17       	cp	r24, r16
    1340:	70 f4       	brcc	.+28     	; 0x135e <__vector_24+0x194>
    1342:	e8 2f       	mov	r30, r24
    1344:	ff 27       	eor	r31, r31
    1346:	ef 70       	andi	r30, 0x0F	; 15
    1348:	f0 70       	andi	r31, 0x00	; 0
    134a:	e4 54       	subi	r30, 0x44	; 68
    134c:	fe 4f       	sbci	r31, 0xFE	; 254
    134e:	60 83       	st	Z, r22
    1350:	26 0f       	add	r18, r22
    1352:	20 93 bb 01 	sts	0x01BB, r18
    1356:	8f 5f       	subi	r24, 0xFF	; 255
    1358:	80 93 b9 01 	sts	0x01B9, r24
    135c:	1e c0       	rjmp	.+60     	; 0x139a <__vector_24+0x1d0>
    135e:	62 17       	cp	r22, r18
    1360:	e1 f4       	brne	.+56     	; 0x139a <__vector_24+0x1d0>
    1362:	10 92 b9 01 	sts	0x01B9, r1
    1366:	10 e0       	ldi	r17, 0x00	; 0
    1368:	11 c0       	rjmp	.+34     	; 0x138c <__vector_24+0x1c2>
    136a:	80 91 b1 01 	lds	r24, 0x01B1
    136e:	e1 2f       	mov	r30, r17
    1370:	ff 27       	eor	r31, r31
    1372:	ef 70       	andi	r30, 0x0F	; 15
    1374:	f0 70       	andi	r31, 0x00	; 0
    1376:	e4 54       	subi	r30, 0x44	; 68
    1378:	fe 4f       	sbci	r31, 0xFE	; 254
    137a:	60 81       	ld	r22, Z
    137c:	0e 94 68 08 	call	0x10d0	; 0x10d0 <twi_registers_write>
    1380:	80 91 b1 01 	lds	r24, 0x01B1
    1384:	8f 5f       	subi	r24, 0xFF	; 255
    1386:	80 93 b1 01 	sts	0x01B1, r24
    138a:	1f 5f       	subi	r17, 0xFF	; 255
    138c:	10 17       	cp	r17, r16
    138e:	68 f3       	brcs	.-38     	; 0x136a <__vector_24+0x1a0>
    1390:	10 93 b9 01 	sts	0x01B9, r17
    1394:	02 c0       	rjmp	.+4      	; 0x139a <__vector_24+0x1d0>
    1396:	85 ed       	ldi	r24, 0xD5	; 213
    1398:	01 c0       	rjmp	.+2      	; 0x139c <__vector_24+0x1d2>
    139a:	85 ec       	ldi	r24, 0xC5	; 197
    139c:	80 93 bc 00 	sts	0x00BC, r24
    13a0:	ff 91       	pop	r31
    13a2:	ef 91       	pop	r30
    13a4:	bf 91       	pop	r27
    13a6:	af 91       	pop	r26
    13a8:	9f 91       	pop	r25
    13aa:	8f 91       	pop	r24
    13ac:	7f 91       	pop	r23
    13ae:	6f 91       	pop	r22
    13b0:	5f 91       	pop	r21
    13b2:	4f 91       	pop	r20
    13b4:	3f 91       	pop	r19
    13b6:	2f 91       	pop	r18
    13b8:	1f 91       	pop	r17
    13ba:	0f 91       	pop	r16
    13bc:	0f 90       	pop	r0
    13be:	0f be       	out	0x3f, r0	; 63
    13c0:	0f 90       	pop	r0
    13c2:	1f 90       	pop	r1
    13c4:	18 95       	reti

000013c6 <general_call_start_wait>:
    13c6:	80 91 f3 01 	lds	r24, 0x01F3
    13ca:	80 61       	ori	r24, 0x10	; 16
    13cc:	80 93 f3 01 	sts	0x01F3, r24
    13d0:	08 95       	ret

000013d2 <general_call_start_move>:
    13d2:	80 91 f3 01 	lds	r24, 0x01F3
    13d6:	80 62       	ori	r24, 0x20	; 32
    13d8:	80 93 f3 01 	sts	0x01F3, r24
    13dc:	08 95       	ret

000013de <general_call_enable>:
    13de:	ea eb       	ldi	r30, 0xBA	; 186
    13e0:	f0 e0       	ldi	r31, 0x00	; 0
    13e2:	80 81       	ld	r24, Z
    13e4:	81 60       	ori	r24, 0x01	; 1
    13e6:	80 83       	st	Z, r24
    13e8:	80 91 f3 01 	lds	r24, 0x01F3
    13ec:	88 60       	ori	r24, 0x08	; 8
    13ee:	80 93 f3 01 	sts	0x01F3, r24
    13f2:	08 95       	ret

000013f4 <twi_slave_init>:
    13f4:	10 92 b4 01 	sts	0x01B4, r1
    13f8:	10 92 b3 01 	sts	0x01B3, r1
    13fc:	88 0f       	add	r24, r24
    13fe:	ea eb       	ldi	r30, 0xBA	; 186
    1400:	f0 e0       	ldi	r31, 0x00	; 0
    1402:	80 83       	st	Z, r24
    1404:	80 81       	ld	r24, Z
    1406:	8e 7f       	andi	r24, 0xFE	; 254
    1408:	80 83       	st	Z, r24
    140a:	80 91 f3 01 	lds	r24, 0x01F3
    140e:	87 7c       	andi	r24, 0xC7	; 199
    1410:	80 93 f3 01 	sts	0x01F3, r24
    1414:	8f ef       	ldi	r24, 0xFF	; 255
    1416:	80 93 bb 00 	sts	0x00BB, r24
    141a:	85 ec       	ldi	r24, 0xC5	; 197
    141c:	80 93 bc 00 	sts	0x00BC, r24
    1420:	08 95       	ret

00001422 <pwm_stop>:
    1422:	f8 94       	cli
    1424:	80 91 cc 01 	lds	r24, 0x01CC
    1428:	88 23       	and	r24, r24
    142a:	21 f4       	brne	.+8      	; 0x1434 <pwm_stop+0x12>
    142c:	80 91 cd 01 	lds	r24, 0x01CD
    1430:	88 23       	and	r24, r24
    1432:	b1 f0       	breq	.+44     	; 0x1460 <pwm_stop+0x3e>
    1434:	80 91 80 00 	lds	r24, 0x0080
    1438:	8f 73       	andi	r24, 0x3F	; 63
    143a:	80 93 80 00 	sts	0x0080, r24
    143e:	80 91 80 00 	lds	r24, 0x0080
    1442:	8f 7c       	andi	r24, 0xCF	; 207
    1444:	80 93 80 00 	sts	0x0080, r24
    1448:	85 b1       	in	r24, 0x05	; 5
    144a:	89 7f       	andi	r24, 0xF9	; 249
    144c:	85 b9       	out	0x05, r24	; 5
    144e:	80 e0       	ldi	r24, 0x00	; 0
    1450:	00 00       	nop
    1452:	8f 5f       	subi	r24, 0xFF	; 255
    1454:	88 30       	cpi	r24, 0x08	; 8
    1456:	e1 f7       	brne	.-8      	; 0x1450 <pwm_stop+0x2e>
    1458:	10 92 cc 01 	sts	0x01CC, r1
    145c:	10 92 cd 01 	sts	0x01CD, r1
    1460:	10 92 89 00 	sts	0x0089, r1
    1464:	10 92 88 00 	sts	0x0088, r1
    1468:	10 92 8b 00 	sts	0x008B, r1
    146c:	10 92 8a 00 	sts	0x008A, r1
    1470:	78 94       	sei
    1472:	80 91 cc 01 	lds	r24, 0x01CC
    1476:	80 93 fc 01 	sts	0x01FC, r24
    147a:	80 91 cd 01 	lds	r24, 0x01CD
    147e:	80 93 fd 01 	sts	0x01FD, r24
    1482:	08 95       	ret

00001484 <pwm_registers_defaults>:
    1484:	40 e1       	ldi	r20, 0x10	; 16
    1486:	50 e0       	ldi	r21, 0x00	; 0
    1488:	69 e2       	ldi	r22, 0x29	; 41
    148a:	88 e2       	ldi	r24, 0x28	; 40
    148c:	0e 94 3d 02 	call	0x47a	; 0x47a <registers_write_word>
    1490:	08 95       	ret

00001492 <pwm_init>:
    1492:	69 e2       	ldi	r22, 0x29	; 41
    1494:	88 e2       	ldi	r24, 0x28	; 40
    1496:	0e 94 2a 02 	call	0x454	; 0x454 <registers_read_word>
    149a:	90 93 cf 01 	sts	0x01CF, r25
    149e:	80 93 ce 01 	sts	0x01CE, r24
    14a2:	e0 e8       	ldi	r30, 0x80	; 128
    14a4:	f0 e0       	ldi	r31, 0x00	; 0
    14a6:	10 82       	st	Z, r1
    14a8:	00 00       	nop
    14aa:	00 00       	nop
    14ac:	00 00       	nop
    14ae:	25 b1       	in	r18, 0x05	; 5
    14b0:	29 7f       	andi	r18, 0xF9	; 249
    14b2:	25 b9       	out	0x05, r18	; 5
    14b4:	24 b1       	in	r18, 0x04	; 4
    14b6:	26 60       	ori	r18, 0x06	; 6
    14b8:	24 b9       	out	0x04, r18	; 4
    14ba:	10 92 85 00 	sts	0x0085, r1
    14be:	10 92 84 00 	sts	0x0084, r1
    14c2:	10 82       	st	Z, r1
    14c4:	a1 e8       	ldi	r26, 0x81	; 129
    14c6:	b0 e0       	ldi	r27, 0x00	; 0
    14c8:	1c 92       	st	X, r1
    14ca:	10 92 82 00 	sts	0x0082, r1
    14ce:	10 92 6f 00 	sts	0x006F, r1
    14d2:	24 e0       	ldi	r18, 0x04	; 4
    14d4:	88 0f       	add	r24, r24
    14d6:	99 1f       	adc	r25, r25
    14d8:	2a 95       	dec	r18
    14da:	e1 f7       	brne	.-8      	; 0x14d4 <pwm_init+0x42>
    14dc:	01 97       	sbiw	r24, 0x01	; 1
    14de:	90 93 87 00 	sts	0x0087, r25
    14e2:	80 93 86 00 	sts	0x0086, r24
    14e6:	10 92 89 00 	sts	0x0089, r1
    14ea:	10 92 88 00 	sts	0x0088, r1
    14ee:	10 92 8b 00 	sts	0x008B, r1
    14f2:	10 92 8a 00 	sts	0x008A, r1
    14f6:	10 82       	st	Z, r1
    14f8:	81 e1       	ldi	r24, 0x11	; 17
    14fa:	8c 93       	st	X, r24
    14fc:	10 92 fc 01 	sts	0x01FC, r1
    1500:	10 92 fd 01 	sts	0x01FD, r1
    1504:	08 95       	ret

00001506 <pwm_update>:
    1506:	ef 92       	push	r14
    1508:	ff 92       	push	r15
    150a:	0f 93       	push	r16
    150c:	1f 93       	push	r17
    150e:	cf 93       	push	r28
    1510:	df 93       	push	r29
    1512:	7c 01       	movw	r14, r24
    1514:	eb 01       	movw	r28, r22
    1516:	69 e2       	ldi	r22, 0x29	; 41
    1518:	88 e2       	ldi	r24, 0x28	; 40
    151a:	0e 94 2a 02 	call	0x454	; 0x454 <registers_read_word>
    151e:	20 91 ce 01 	lds	r18, 0x01CE
    1522:	30 91 cf 01 	lds	r19, 0x01CF
    1526:	82 17       	cp	r24, r18
    1528:	93 07       	cpc	r25, r19
    152a:	a1 f1       	breq	.+104    	; 0x1594 <pwm_update+0x8e>
    152c:	80 91 80 00 	lds	r24, 0x0080
    1530:	8f 73       	andi	r24, 0x3F	; 63
    1532:	80 93 80 00 	sts	0x0080, r24
    1536:	80 91 80 00 	lds	r24, 0x0080
    153a:	8f 7c       	andi	r24, 0xCF	; 207
    153c:	80 93 80 00 	sts	0x0080, r24
    1540:	85 b1       	in	r24, 0x05	; 5
    1542:	89 7f       	andi	r24, 0xF9	; 249
    1544:	85 b9       	out	0x05, r24	; 5
    1546:	80 e0       	ldi	r24, 0x00	; 0
    1548:	00 00       	nop
    154a:	8f 5f       	subi	r24, 0xFF	; 255
    154c:	88 30       	cpi	r24, 0x08	; 8
    154e:	e1 f7       	brne	.-8      	; 0x1548 <pwm_update+0x42>
    1550:	10 92 cc 01 	sts	0x01CC, r1
    1554:	10 92 cd 01 	sts	0x01CD, r1
    1558:	69 e2       	ldi	r22, 0x29	; 41
    155a:	88 e2       	ldi	r24, 0x28	; 40
    155c:	0e 94 2a 02 	call	0x454	; 0x454 <registers_read_word>
    1560:	90 93 cf 01 	sts	0x01CF, r25
    1564:	80 93 ce 01 	sts	0x01CE, r24
    1568:	a4 e0       	ldi	r26, 0x04	; 4
    156a:	88 0f       	add	r24, r24
    156c:	99 1f       	adc	r25, r25
    156e:	aa 95       	dec	r26
    1570:	e1 f7       	brne	.-8      	; 0x156a <pwm_update+0x64>
    1572:	01 97       	sbiw	r24, 0x01	; 1
    1574:	90 93 87 00 	sts	0x0087, r25
    1578:	80 93 86 00 	sts	0x0086, r24
    157c:	10 92 85 00 	sts	0x0085, r1
    1580:	10 92 84 00 	sts	0x0084, r1
    1584:	10 92 89 00 	sts	0x0089, r1
    1588:	10 92 88 00 	sts	0x0088, r1
    158c:	10 92 8b 00 	sts	0x008B, r1
    1590:	10 92 8a 00 	sts	0x008A, r1
    1594:	80 91 1c 02 	lds	r24, 0x021C
    1598:	88 23       	and	r24, r24
    159a:	f1 f0       	breq	.+60     	; 0x15d8 <pwm_update+0xd2>
    159c:	6d e2       	ldi	r22, 0x2D	; 45
    159e:	8c e2       	ldi	r24, 0x2C	; 44
    15a0:	0e 94 2a 02 	call	0x454	; 0x454 <registers_read_word>
    15a4:	8c 01       	movw	r16, r24
    15a6:	6b e2       	ldi	r22, 0x2B	; 43
    15a8:	8a e2       	ldi	r24, 0x2A	; 42
    15aa:	0e 94 2a 02 	call	0x454	; 0x454 <registers_read_word>
    15ae:	a8 01       	movw	r20, r16
    15b0:	00 50       	subi	r16, 0x00	; 0
    15b2:	14 40       	sbci	r17, 0x04	; 4
    15b4:	10 f0       	brcs	.+4      	; 0x15ba <pwm_update+0xb4>
    15b6:	4f ef       	ldi	r20, 0xFF	; 255
    15b8:	53 e0       	ldi	r21, 0x03	; 3
    15ba:	9c 01       	movw	r18, r24
    15bc:	80 50       	subi	r24, 0x00	; 0
    15be:	94 40       	sbci	r25, 0x04	; 4
    15c0:	10 f0       	brcs	.+4      	; 0x15c6 <pwm_update+0xc0>
    15c2:	2f ef       	ldi	r18, 0xFF	; 255
    15c4:	33 e0       	ldi	r19, 0x03	; 3
    15c6:	8f ef       	ldi	r24, 0xFF	; 255
    15c8:	93 e0       	ldi	r25, 0x03	; 3
    15ca:	bc 01       	movw	r22, r24
    15cc:	64 1b       	sub	r22, r20
    15ce:	75 0b       	sbc	r23, r21
    15d0:	ab 01       	movw	r20, r22
    15d2:	82 1b       	sub	r24, r18
    15d4:	93 0b       	sbc	r25, r19
    15d6:	15 c0       	rjmp	.+42     	; 0x1602 <pwm_update+0xfc>
    15d8:	6b e2       	ldi	r22, 0x2B	; 43
    15da:	8a e2       	ldi	r24, 0x2A	; 42
    15dc:	0e 94 2a 02 	call	0x454	; 0x454 <registers_read_word>
    15e0:	8c 01       	movw	r16, r24
    15e2:	6d e2       	ldi	r22, 0x2D	; 45
    15e4:	8c e2       	ldi	r24, 0x2C	; 44
    15e6:	0e 94 2a 02 	call	0x454	; 0x454 <registers_read_word>
    15ea:	a8 01       	movw	r20, r16
    15ec:	00 50       	subi	r16, 0x00	; 0
    15ee:	14 40       	sbci	r17, 0x04	; 4
    15f0:	10 f0       	brcs	.+4      	; 0x15f6 <pwm_update+0xf0>
    15f2:	4f ef       	ldi	r20, 0xFF	; 255
    15f4:	53 e0       	ldi	r21, 0x03	; 3
    15f6:	24 e0       	ldi	r18, 0x04	; 4
    15f8:	80 30       	cpi	r24, 0x00	; 0
    15fa:	92 07       	cpc	r25, r18
    15fc:	10 f0       	brcs	.+4      	; 0x1602 <pwm_update+0xfc>
    15fe:	8f ef       	ldi	r24, 0xFF	; 255
    1600:	93 e0       	ldi	r25, 0x03	; 3
    1602:	e4 16       	cp	r14, r20
    1604:	f5 06       	cpc	r15, r21
    1606:	20 f4       	brcc	.+8      	; 0x1610 <pwm_update+0x10a>
    1608:	d7 ff       	sbrs	r29, 7
    160a:	02 c0       	rjmp	.+4      	; 0x1610 <pwm_update+0x10a>
    160c:	c0 e0       	ldi	r28, 0x00	; 0
    160e:	d0 e0       	ldi	r29, 0x00	; 0
    1610:	8e 15       	cp	r24, r14
    1612:	9f 05       	cpc	r25, r15
    1614:	28 f4       	brcc	.+10     	; 0x1620 <pwm_update+0x11a>
    1616:	1c 16       	cp	r1, r28
    1618:	1d 06       	cpc	r1, r29
    161a:	14 f4       	brge	.+4      	; 0x1620 <pwm_update+0x11a>
    161c:	c0 e0       	ldi	r28, 0x00	; 0
    161e:	d0 e0       	ldi	r29, 0x00	; 0
    1620:	80 91 f3 01 	lds	r24, 0x01F3
    1624:	80 ff       	sbrs	r24, 0
    1626:	a6 c0       	rjmp	.+332    	; 0x1774 <pwm_update+0x26e>
    1628:	d7 ff       	sbrs	r29, 7
    162a:	50 c0       	rjmp	.+160    	; 0x16cc <pwm_update+0x1c6>
    162c:	be 01       	movw	r22, r28
    162e:	61 95       	neg	r22
    1630:	06 2f       	mov	r16, r22
    1632:	77 27       	eor	r23, r23
    1634:	88 27       	eor	r24, r24
    1636:	99 27       	eor	r25, r25
    1638:	20 91 ce 01 	lds	r18, 0x01CE
    163c:	30 91 cf 01 	lds	r19, 0x01CF
    1640:	44 27       	eor	r20, r20
    1642:	55 27       	eor	r21, r21
    1644:	f4 e0       	ldi	r31, 0x04	; 4
    1646:	22 0f       	add	r18, r18
    1648:	33 1f       	adc	r19, r19
    164a:	44 1f       	adc	r20, r20
    164c:	55 1f       	adc	r21, r21
    164e:	fa 95       	dec	r31
    1650:	d1 f7       	brne	.-12     	; 0x1646 <pwm_update+0x140>
    1652:	21 50       	subi	r18, 0x01	; 1
    1654:	30 40       	sbci	r19, 0x00	; 0
    1656:	40 40       	sbci	r20, 0x00	; 0
    1658:	50 40       	sbci	r21, 0x00	; 0
    165a:	0e 94 d5 14 	call	0x29aa	; 0x29aa <__mulsi3>
    165e:	2f ef       	ldi	r18, 0xFF	; 255
    1660:	30 e0       	ldi	r19, 0x00	; 0
    1662:	40 e0       	ldi	r20, 0x00	; 0
    1664:	50 e0       	ldi	r21, 0x00	; 0
    1666:	0e 94 f4 14 	call	0x29e8	; 0x29e8 <__udivmodsi4>
    166a:	f8 94       	cli
    166c:	80 91 cd 01 	lds	r24, 0x01CD
    1670:	88 23       	and	r24, r24
    1672:	21 f0       	breq	.+8      	; 0x167c <pwm_update+0x176>
    1674:	80 91 cc 01 	lds	r24, 0x01CC
    1678:	88 23       	and	r24, r24
    167a:	b1 f0       	breq	.+44     	; 0x16a8 <pwm_update+0x1a2>
    167c:	80 91 80 00 	lds	r24, 0x0080
    1680:	8f 75       	andi	r24, 0x5F	; 95
    1682:	80 93 80 00 	sts	0x0080, r24
    1686:	30 93 8b 00 	sts	0x008B, r19
    168a:	20 93 8a 00 	sts	0x008A, r18
    168e:	85 b1       	in	r24, 0x05	; 5
    1690:	89 7f       	andi	r24, 0xF9	; 249
    1692:	85 b9       	out	0x05, r24	; 5
    1694:	80 e0       	ldi	r24, 0x00	; 0
    1696:	00 00       	nop
    1698:	8f 5f       	subi	r24, 0xFF	; 255
    169a:	88 30       	cpi	r24, 0x08	; 8
    169c:	e1 f7       	brne	.-8      	; 0x1696 <pwm_update+0x190>
    169e:	80 e2       	ldi	r24, 0x20	; 32
    16a0:	80 93 80 00 	sts	0x0080, r24
    16a4:	10 92 cc 01 	sts	0x01CC, r1
    16a8:	00 93 cd 01 	sts	0x01CD, r16
    16ac:	10 92 89 00 	sts	0x0089, r1
    16b0:	10 92 88 00 	sts	0x0088, r1
    16b4:	30 93 8b 00 	sts	0x008B, r19
    16b8:	20 93 8a 00 	sts	0x008A, r18
    16bc:	78 94       	sei
    16be:	80 91 cc 01 	lds	r24, 0x01CC
    16c2:	80 93 fc 01 	sts	0x01FC, r24
    16c6:	00 93 fd 01 	sts	0x01FD, r16
    16ca:	56 c0       	rjmp	.+172    	; 0x1778 <pwm_update+0x272>
    16cc:	20 97       	sbiw	r28, 0x00	; 0
    16ce:	09 f4       	brne	.+2      	; 0x16d2 <pwm_update+0x1cc>
    16d0:	51 c0       	rjmp	.+162    	; 0x1774 <pwm_update+0x26e>
    16d2:	0c 2f       	mov	r16, r28
    16d4:	6c 2f       	mov	r22, r28
    16d6:	77 27       	eor	r23, r23
    16d8:	88 27       	eor	r24, r24
    16da:	99 27       	eor	r25, r25
    16dc:	20 91 ce 01 	lds	r18, 0x01CE
    16e0:	30 91 cf 01 	lds	r19, 0x01CF
    16e4:	44 27       	eor	r20, r20
    16e6:	55 27       	eor	r21, r21
    16e8:	e4 e0       	ldi	r30, 0x04	; 4
    16ea:	22 0f       	add	r18, r18
    16ec:	33 1f       	adc	r19, r19
    16ee:	44 1f       	adc	r20, r20
    16f0:	55 1f       	adc	r21, r21
    16f2:	ea 95       	dec	r30
    16f4:	d1 f7       	brne	.-12     	; 0x16ea <pwm_update+0x1e4>
    16f6:	21 50       	subi	r18, 0x01	; 1
    16f8:	30 40       	sbci	r19, 0x00	; 0
    16fa:	40 40       	sbci	r20, 0x00	; 0
    16fc:	50 40       	sbci	r21, 0x00	; 0
    16fe:	0e 94 d5 14 	call	0x29aa	; 0x29aa <__mulsi3>
    1702:	2f ef       	ldi	r18, 0xFF	; 255
    1704:	30 e0       	ldi	r19, 0x00	; 0
    1706:	40 e0       	ldi	r20, 0x00	; 0
    1708:	50 e0       	ldi	r21, 0x00	; 0
    170a:	0e 94 f4 14 	call	0x29e8	; 0x29e8 <__udivmodsi4>
    170e:	f8 94       	cli
    1710:	80 91 cc 01 	lds	r24, 0x01CC
    1714:	88 23       	and	r24, r24
    1716:	21 f0       	breq	.+8      	; 0x1720 <pwm_update+0x21a>
    1718:	80 91 cd 01 	lds	r24, 0x01CD
    171c:	88 23       	and	r24, r24
    171e:	c1 f0       	breq	.+48     	; 0x1750 <pwm_update+0x24a>
    1720:	80 91 80 00 	lds	r24, 0x0080
    1724:	8f 75       	andi	r24, 0x5F	; 95
    1726:	80 93 80 00 	sts	0x0080, r24
    172a:	30 93 89 00 	sts	0x0089, r19
    172e:	20 93 88 00 	sts	0x0088, r18
    1732:	85 b1       	in	r24, 0x05	; 5
    1734:	89 7f       	andi	r24, 0xF9	; 249
    1736:	85 b9       	out	0x05, r24	; 5
    1738:	80 e0       	ldi	r24, 0x00	; 0
    173a:	00 00       	nop
    173c:	8f 5f       	subi	r24, 0xFF	; 255
    173e:	88 30       	cpi	r24, 0x08	; 8
    1740:	e1 f7       	brne	.-8      	; 0x173a <pwm_update+0x234>
    1742:	80 91 80 00 	lds	r24, 0x0080
    1746:	80 68       	ori	r24, 0x80	; 128
    1748:	80 93 80 00 	sts	0x0080, r24
    174c:	10 92 cd 01 	sts	0x01CD, r1
    1750:	00 93 cc 01 	sts	0x01CC, r16
    1754:	30 93 89 00 	sts	0x0089, r19
    1758:	20 93 88 00 	sts	0x0088, r18
    175c:	10 92 8b 00 	sts	0x008B, r1
    1760:	10 92 8a 00 	sts	0x008A, r1
    1764:	78 94       	sei
    1766:	00 93 fc 01 	sts	0x01FC, r16
    176a:	80 91 cd 01 	lds	r24, 0x01CD
    176e:	80 93 fd 01 	sts	0x01FD, r24
    1772:	02 c0       	rjmp	.+4      	; 0x1778 <pwm_update+0x272>
    1774:	0e 94 11 0a 	call	0x1422	; 0x1422 <pwm_stop>
    1778:	df 91       	pop	r29
    177a:	cf 91       	pop	r28
    177c:	1f 91       	pop	r17
    177e:	0f 91       	pop	r16
    1780:	ff 90       	pop	r15
    1782:	ef 90       	pop	r14
    1784:	08 95       	ret

00001786 <curve_init>:
    1786:	2f 92       	push	r2
    1788:	3f 92       	push	r3
    178a:	4f 92       	push	r4
    178c:	5f 92       	push	r5
    178e:	6f 92       	push	r6
    1790:	7f 92       	push	r7
    1792:	8f 92       	push	r8
    1794:	9f 92       	push	r9
    1796:	af 92       	push	r10
    1798:	bf 92       	push	r11
    179a:	cf 92       	push	r12
    179c:	df 92       	push	r13
    179e:	ef 92       	push	r14
    17a0:	ff 92       	push	r15
    17a2:	0f 93       	push	r16
    17a4:	1f 93       	push	r17
    17a6:	cf 93       	push	r28
    17a8:	df 93       	push	r29
    17aa:	cd b7       	in	r28, 0x3d	; 61
    17ac:	de b7       	in	r29, 0x3e	; 62
    17ae:	24 97       	sbiw	r28, 0x04	; 4
    17b0:	0f b6       	in	r0, 0x3f	; 63
    17b2:	f8 94       	cli
    17b4:	de bf       	out	0x3e, r29	; 62
    17b6:	0f be       	out	0x3f, r0	; 63
    17b8:	cd bf       	out	0x3d, r28	; 61
    17ba:	4b 01       	movw	r8, r22
    17bc:	19 01       	movw	r2, r18
    17be:	2a 01       	movw	r4, r20
    17c0:	e9 82       	std	Y+1, r14	; 0x01
    17c2:	fa 82       	std	Y+2, r15	; 0x02
    17c4:	0b 83       	std	Y+3, r16	; 0x03
    17c6:	1c 83       	std	Y+4, r17	; 0x04
    17c8:	90 93 44 02 	sts	0x0244, r25
    17cc:	80 93 43 02 	sts	0x0243, r24
    17d0:	70 93 36 02 	sts	0x0236, r23
    17d4:	60 93 35 02 	sts	0x0235, r22
    17d8:	88 1a       	sub	r8, r24
    17da:	99 0a       	sbc	r9, r25
    17dc:	90 92 46 02 	sts	0x0246, r9
    17e0:	80 92 45 02 	sts	0x0245, r8
    17e4:	b4 01       	movw	r22, r8
    17e6:	88 27       	eor	r24, r24
    17e8:	77 fd       	sbrc	r23, 7
    17ea:	80 95       	com	r24
    17ec:	98 2f       	mov	r25, r24
    17ee:	0e 94 54 12 	call	0x24a8	; 0x24a8 <__floatsisf>
    17f2:	7b 01       	movw	r14, r22
    17f4:	8c 01       	movw	r16, r24
    17f6:	97 fe       	sbrs	r9, 7
    17f8:	08 c0       	rjmp	.+16     	; 0x180a <curve_init+0x84>
    17fa:	20 e0       	ldi	r18, 0x00	; 0
    17fc:	30 e0       	ldi	r19, 0x00	; 0
    17fe:	40 e8       	ldi	r20, 0x80	; 128
    1800:	57 e4       	ldi	r21, 0x47	; 71
    1802:	0e 94 4f 10 	call	0x209e	; 0x209e <__addsf3>
    1806:	7b 01       	movw	r14, r22
    1808:	8c 01       	movw	r16, r24
    180a:	e0 92 d0 01 	sts	0x01D0, r14
    180e:	f0 92 d1 01 	sts	0x01D1, r15
    1812:	00 93 d2 01 	sts	0x01D2, r16
    1816:	10 93 d3 01 	sts	0x01D3, r17
    181a:	a8 01       	movw	r20, r16
    181c:	97 01       	movw	r18, r14
    181e:	c6 01       	movw	r24, r12
    1820:	b5 01       	movw	r22, r10
    1822:	0e 94 7c 10 	call	0x20f8	; 0x20f8 <__mulsf3>
    1826:	5b 01       	movw	r10, r22
    1828:	6c 01       	movw	r12, r24
    182a:	a8 01       	movw	r20, r16
    182c:	97 01       	movw	r18, r14
    182e:	69 8d       	ldd	r22, Y+25	; 0x19
    1830:	7a 8d       	ldd	r23, Y+26	; 0x1a
    1832:	8b 8d       	ldd	r24, Y+27	; 0x1b
    1834:	9c 8d       	ldd	r25, Y+28	; 0x1c
    1836:	0e 94 7c 10 	call	0x20f8	; 0x20f8 <__mulsf3>
    183a:	3b 01       	movw	r6, r22
    183c:	4c 01       	movw	r8, r24
    183e:	20 92 31 02 	sts	0x0231, r2
    1842:	30 92 32 02 	sts	0x0232, r3
    1846:	40 92 33 02 	sts	0x0233, r4
    184a:	50 92 34 02 	sts	0x0234, r5
    184e:	89 81       	ldd	r24, Y+1	; 0x01
    1850:	9a 81       	ldd	r25, Y+2	; 0x02
    1852:	ab 81       	ldd	r26, Y+3	; 0x03
    1854:	bc 81       	ldd	r27, Y+4	; 0x04
    1856:	80 93 3b 02 	sts	0x023B, r24
    185a:	90 93 3c 02 	sts	0x023C, r25
    185e:	a0 93 3d 02 	sts	0x023D, r26
    1862:	b0 93 3e 02 	sts	0x023E, r27
    1866:	a0 92 3f 02 	sts	0x023F, r10
    186a:	b0 92 40 02 	sts	0x0240, r11
    186e:	c0 92 41 02 	sts	0x0241, r12
    1872:	d0 92 42 02 	sts	0x0242, r13
    1876:	60 92 37 02 	sts	0x0237, r6
    187a:	70 92 38 02 	sts	0x0238, r7
    187e:	80 92 39 02 	sts	0x0239, r8
    1882:	90 92 3a 02 	sts	0x023A, r9
    1886:	a2 01       	movw	r20, r4
    1888:	91 01       	movw	r18, r2
    188a:	c2 01       	movw	r24, r4
    188c:	b1 01       	movw	r22, r2
    188e:	0e 94 4f 10 	call	0x209e	; 0x209e <__addsf3>
    1892:	7b 01       	movw	r14, r22
    1894:	8c 01       	movw	r16, r24
    1896:	20 e0       	ldi	r18, 0x00	; 0
    1898:	30 e0       	ldi	r19, 0x00	; 0
    189a:	40 e0       	ldi	r20, 0x00	; 0
    189c:	50 ec       	ldi	r21, 0xC0	; 192
    189e:	69 81       	ldd	r22, Y+1	; 0x01
    18a0:	7a 81       	ldd	r23, Y+2	; 0x02
    18a2:	8b 81       	ldd	r24, Y+3	; 0x03
    18a4:	9c 81       	ldd	r25, Y+4	; 0x04
    18a6:	0e 94 7c 10 	call	0x20f8	; 0x20f8 <__mulsf3>
    18aa:	9b 01       	movw	r18, r22
    18ac:	ac 01       	movw	r20, r24
    18ae:	c8 01       	movw	r24, r16
    18b0:	b7 01       	movw	r22, r14
    18b2:	0e 94 4f 10 	call	0x209e	; 0x209e <__addsf3>
    18b6:	a6 01       	movw	r20, r12
    18b8:	95 01       	movw	r18, r10
    18ba:	0e 94 4f 10 	call	0x209e	; 0x209e <__addsf3>
    18be:	a4 01       	movw	r20, r8
    18c0:	93 01       	movw	r18, r6
    18c2:	0e 94 4f 10 	call	0x209e	; 0x209e <__addsf3>
    18c6:	60 93 d4 01 	sts	0x01D4, r22
    18ca:	70 93 d5 01 	sts	0x01D5, r23
    18ce:	80 93 d6 01 	sts	0x01D6, r24
    18d2:	90 93 d7 01 	sts	0x01D7, r25
    18d6:	20 e0       	ldi	r18, 0x00	; 0
    18d8:	30 e0       	ldi	r19, 0x00	; 0
    18da:	40 e4       	ldi	r20, 0x40	; 64
    18dc:	50 ec       	ldi	r21, 0xC0	; 192
    18de:	c2 01       	movw	r24, r4
    18e0:	b1 01       	movw	r22, r2
    18e2:	0e 94 7c 10 	call	0x20f8	; 0x20f8 <__mulsf3>
    18e6:	7b 01       	movw	r14, r22
    18e8:	8c 01       	movw	r16, r24
    18ea:	20 e0       	ldi	r18, 0x00	; 0
    18ec:	30 e0       	ldi	r19, 0x00	; 0
    18ee:	40 e4       	ldi	r20, 0x40	; 64
    18f0:	50 e4       	ldi	r21, 0x40	; 64
    18f2:	69 81       	ldd	r22, Y+1	; 0x01
    18f4:	7a 81       	ldd	r23, Y+2	; 0x02
    18f6:	8b 81       	ldd	r24, Y+3	; 0x03
    18f8:	9c 81       	ldd	r25, Y+4	; 0x04
    18fa:	0e 94 7c 10 	call	0x20f8	; 0x20f8 <__mulsf3>
    18fe:	9b 01       	movw	r18, r22
    1900:	ac 01       	movw	r20, r24
    1902:	c8 01       	movw	r24, r16
    1904:	b7 01       	movw	r22, r14
    1906:	0e 94 4f 10 	call	0x209e	; 0x209e <__addsf3>
    190a:	7b 01       	movw	r14, r22
    190c:	8c 01       	movw	r16, r24
    190e:	20 e0       	ldi	r18, 0x00	; 0
    1910:	30 e0       	ldi	r19, 0x00	; 0
    1912:	40 e0       	ldi	r20, 0x00	; 0
    1914:	50 ec       	ldi	r21, 0xC0	; 192
    1916:	c6 01       	movw	r24, r12
    1918:	b5 01       	movw	r22, r10
    191a:	0e 94 7c 10 	call	0x20f8	; 0x20f8 <__mulsf3>
    191e:	9b 01       	movw	r18, r22
    1920:	ac 01       	movw	r20, r24
    1922:	c8 01       	movw	r24, r16
    1924:	b7 01       	movw	r22, r14
    1926:	0e 94 4f 10 	call	0x209e	; 0x209e <__addsf3>
    192a:	a4 01       	movw	r20, r8
    192c:	93 01       	movw	r18, r6
    192e:	0e 94 1e 10 	call	0x203c	; 0x203c <__subsf3>
    1932:	60 93 d8 01 	sts	0x01D8, r22
    1936:	70 93 d9 01 	sts	0x01D9, r23
    193a:	80 93 da 01 	sts	0x01DA, r24
    193e:	90 93 db 01 	sts	0x01DB, r25
    1942:	a0 92 dc 01 	sts	0x01DC, r10
    1946:	b0 92 dd 01 	sts	0x01DD, r11
    194a:	c0 92 de 01 	sts	0x01DE, r12
    194e:	d0 92 df 01 	sts	0x01DF, r13
    1952:	20 92 e0 01 	sts	0x01E0, r2
    1956:	30 92 e1 01 	sts	0x01E1, r3
    195a:	40 92 e2 01 	sts	0x01E2, r4
    195e:	50 92 e3 01 	sts	0x01E3, r5
    1962:	24 96       	adiw	r28, 0x04	; 4
    1964:	0f b6       	in	r0, 0x3f	; 63
    1966:	f8 94       	cli
    1968:	de bf       	out	0x3e, r29	; 62
    196a:	0f be       	out	0x3f, r0	; 63
    196c:	cd bf       	out	0x3d, r28	; 61
    196e:	df 91       	pop	r29
    1970:	cf 91       	pop	r28
    1972:	1f 91       	pop	r17
    1974:	0f 91       	pop	r16
    1976:	ff 90       	pop	r15
    1978:	ef 90       	pop	r14
    197a:	df 90       	pop	r13
    197c:	cf 90       	pop	r12
    197e:	bf 90       	pop	r11
    1980:	af 90       	pop	r10
    1982:	9f 90       	pop	r9
    1984:	8f 90       	pop	r8
    1986:	7f 90       	pop	r7
    1988:	6f 90       	pop	r6
    198a:	5f 90       	pop	r5
    198c:	4f 90       	pop	r4
    198e:	3f 90       	pop	r3
    1990:	2f 90       	pop	r2
    1992:	08 95       	ret

00001994 <curve_solve>:
    1994:	2f 92       	push	r2
    1996:	3f 92       	push	r3
    1998:	4f 92       	push	r4
    199a:	5f 92       	push	r5
    199c:	6f 92       	push	r6
    199e:	7f 92       	push	r7
    19a0:	8f 92       	push	r8
    19a2:	9f 92       	push	r9
    19a4:	af 92       	push	r10
    19a6:	bf 92       	push	r11
    19a8:	cf 92       	push	r12
    19aa:	df 92       	push	r13
    19ac:	ef 92       	push	r14
    19ae:	ff 92       	push	r15
    19b0:	0f 93       	push	r16
    19b2:	1f 93       	push	r17
    19b4:	cf 93       	push	r28
    19b6:	df 93       	push	r29
    19b8:	cd b7       	in	r28, 0x3d	; 61
    19ba:	de b7       	in	r29, 0x3e	; 62
    19bc:	60 97       	sbiw	r28, 0x10	; 16
    19be:	0f b6       	in	r0, 0x3f	; 63
    19c0:	f8 94       	cli
    19c2:	de bf       	out	0x3e, r29	; 62
    19c4:	0f be       	out	0x3f, r0	; 63
    19c6:	cd bf       	out	0x3d, r28	; 61
    19c8:	8c 01       	movw	r16, r24
    19ca:	78 8b       	std	Y+16, r23	; 0x10
    19cc:	6f 87       	std	Y+15, r22	; 0x0f
    19ce:	5e 87       	std	Y+14, r21	; 0x0e
    19d0:	4d 87       	std	Y+13, r20	; 0x0d
    19d2:	20 91 43 02 	lds	r18, 0x0243
    19d6:	30 91 44 02 	lds	r19, 0x0244
    19da:	28 17       	cp	r18, r24
    19dc:	39 07       	cpc	r19, r25
    19de:	c8 f0       	brcs	.+50     	; 0x1a12 <curve_solve+0x7e>
    19e0:	80 91 31 02 	lds	r24, 0x0231
    19e4:	90 91 32 02 	lds	r25, 0x0232
    19e8:	a0 91 33 02 	lds	r26, 0x0233
    19ec:	b0 91 34 02 	lds	r27, 0x0234
    19f0:	fb 01       	movw	r30, r22
    19f2:	80 83       	st	Z, r24
    19f4:	91 83       	std	Z+1, r25	; 0x01
    19f6:	a2 83       	std	Z+2, r26	; 0x02
    19f8:	b3 83       	std	Z+3, r27	; 0x03
    19fa:	02 17       	cp	r16, r18
    19fc:	13 07       	cpc	r17, r19
    19fe:	08 f1       	brcs	.+66     	; 0x1a42 <curve_solve+0xae>
    1a00:	80 91 3f 02 	lds	r24, 0x023F
    1a04:	90 91 40 02 	lds	r25, 0x0240
    1a08:	a0 91 41 02 	lds	r26, 0x0241
    1a0c:	b0 91 42 02 	lds	r27, 0x0242
    1a10:	25 c0       	rjmp	.+74     	; 0x1a5c <curve_solve+0xc8>
    1a12:	40 91 35 02 	lds	r20, 0x0235
    1a16:	50 91 36 02 	lds	r21, 0x0236
    1a1a:	84 17       	cp	r24, r20
    1a1c:	95 07       	cpc	r25, r21
    1a1e:	28 f1       	brcs	.+74     	; 0x1a6a <curve_solve+0xd6>
    1a20:	80 91 3b 02 	lds	r24, 0x023B
    1a24:	90 91 3c 02 	lds	r25, 0x023C
    1a28:	a0 91 3d 02 	lds	r26, 0x023D
    1a2c:	b0 91 3e 02 	lds	r27, 0x023E
    1a30:	ef 85       	ldd	r30, Y+15	; 0x0f
    1a32:	f8 89       	ldd	r31, Y+16	; 0x10
    1a34:	80 83       	st	Z, r24
    1a36:	91 83       	std	Z+1, r25	; 0x01
    1a38:	a2 83       	std	Z+2, r26	; 0x02
    1a3a:	b3 83       	std	Z+3, r27	; 0x03
    1a3c:	40 17       	cp	r20, r16
    1a3e:	51 07       	cpc	r21, r17
    1a40:	28 f4       	brcc	.+10     	; 0x1a4c <curve_solve+0xb8>
    1a42:	80 e0       	ldi	r24, 0x00	; 0
    1a44:	90 e0       	ldi	r25, 0x00	; 0
    1a46:	a0 e0       	ldi	r26, 0x00	; 0
    1a48:	b0 e0       	ldi	r27, 0x00	; 0
    1a4a:	08 c0       	rjmp	.+16     	; 0x1a5c <curve_solve+0xc8>
    1a4c:	80 91 37 02 	lds	r24, 0x0237
    1a50:	90 91 38 02 	lds	r25, 0x0238
    1a54:	a0 91 39 02 	lds	r26, 0x0239
    1a58:	b0 91 3a 02 	lds	r27, 0x023A
    1a5c:	ed 85       	ldd	r30, Y+13	; 0x0d
    1a5e:	fe 85       	ldd	r31, Y+14	; 0x0e
    1a60:	80 83       	st	Z, r24
    1a62:	91 83       	std	Z+1, r25	; 0x01
    1a64:	a2 83       	std	Z+2, r26	; 0x02
    1a66:	b3 83       	std	Z+3, r27	; 0x03
    1a68:	ba c0       	rjmp	.+372    	; 0x1bde <curve_solve+0x24a>
    1a6a:	80 91 d0 01 	lds	r24, 0x01D0
    1a6e:	90 91 d1 01 	lds	r25, 0x01D1
    1a72:	a0 91 d2 01 	lds	r26, 0x01D2
    1a76:	b0 91 d3 01 	lds	r27, 0x01D3
    1a7a:	89 87       	std	Y+9, r24	; 0x09
    1a7c:	9a 87       	std	Y+10, r25	; 0x0a
    1a7e:	ab 87       	std	Y+11, r26	; 0x0b
    1a80:	bc 87       	std	Y+12, r27	; 0x0c
    1a82:	02 1b       	sub	r16, r18
    1a84:	13 0b       	sbc	r17, r19
    1a86:	b8 01       	movw	r22, r16
    1a88:	88 27       	eor	r24, r24
    1a8a:	77 fd       	sbrc	r23, 7
    1a8c:	80 95       	com	r24
    1a8e:	98 2f       	mov	r25, r24
    1a90:	0e 94 54 12 	call	0x24a8	; 0x24a8 <__floatsisf>
    1a94:	17 ff       	sbrs	r17, 7
    1a96:	06 c0       	rjmp	.+12     	; 0x1aa4 <curve_solve+0x110>
    1a98:	20 e0       	ldi	r18, 0x00	; 0
    1a9a:	30 e0       	ldi	r19, 0x00	; 0
    1a9c:	40 e8       	ldi	r20, 0x80	; 128
    1a9e:	57 e4       	ldi	r21, 0x47	; 71
    1aa0:	0e 94 4f 10 	call	0x209e	; 0x209e <__addsf3>
    1aa4:	29 85       	ldd	r18, Y+9	; 0x09
    1aa6:	3a 85       	ldd	r19, Y+10	; 0x0a
    1aa8:	4b 85       	ldd	r20, Y+11	; 0x0b
    1aaa:	5c 85       	ldd	r21, Y+12	; 0x0c
    1aac:	0e 94 9a 11 	call	0x2334	; 0x2334 <__divsf3>
    1ab0:	5b 01       	movw	r10, r22
    1ab2:	6c 01       	movw	r12, r24
    1ab4:	9b 01       	movw	r18, r22
    1ab6:	ac 01       	movw	r20, r24
    1ab8:	0e 94 7c 10 	call	0x20f8	; 0x20f8 <__mulsf3>
    1abc:	3b 01       	movw	r6, r22
    1abe:	4c 01       	movw	r8, r24
    1ac0:	80 91 d4 01 	lds	r24, 0x01D4
    1ac4:	90 91 d5 01 	lds	r25, 0x01D5
    1ac8:	a0 91 d6 01 	lds	r26, 0x01D6
    1acc:	b0 91 d7 01 	lds	r27, 0x01D7
    1ad0:	8d 83       	std	Y+5, r24	; 0x05
    1ad2:	9e 83       	std	Y+6, r25	; 0x06
    1ad4:	af 83       	std	Y+7, r26	; 0x07
    1ad6:	b8 87       	std	Y+8, r27	; 0x08
    1ad8:	20 90 d8 01 	lds	r2, 0x01D8
    1adc:	30 90 d9 01 	lds	r3, 0x01D9
    1ae0:	40 90 da 01 	lds	r4, 0x01DA
    1ae4:	50 90 db 01 	lds	r5, 0x01DB
    1ae8:	80 91 dc 01 	lds	r24, 0x01DC
    1aec:	90 91 dd 01 	lds	r25, 0x01DD
    1af0:	a0 91 de 01 	lds	r26, 0x01DE
    1af4:	b0 91 df 01 	lds	r27, 0x01DF
    1af8:	89 83       	std	Y+1, r24	; 0x01
    1afa:	9a 83       	std	Y+2, r25	; 0x02
    1afc:	ab 83       	std	Y+3, r26	; 0x03
    1afe:	bc 83       	std	Y+4, r27	; 0x04
    1b00:	a6 01       	movw	r20, r12
    1b02:	95 01       	movw	r18, r10
    1b04:	c4 01       	movw	r24, r8
    1b06:	b3 01       	movw	r22, r6
    1b08:	0e 94 7c 10 	call	0x20f8	; 0x20f8 <__mulsf3>
    1b0c:	9b 01       	movw	r18, r22
    1b0e:	ac 01       	movw	r20, r24
    1b10:	6d 81       	ldd	r22, Y+5	; 0x05
    1b12:	7e 81       	ldd	r23, Y+6	; 0x06
    1b14:	8f 81       	ldd	r24, Y+7	; 0x07
    1b16:	98 85       	ldd	r25, Y+8	; 0x08
    1b18:	0e 94 7c 10 	call	0x20f8	; 0x20f8 <__mulsf3>
    1b1c:	7b 01       	movw	r14, r22
    1b1e:	8c 01       	movw	r16, r24
    1b20:	a4 01       	movw	r20, r8
    1b22:	93 01       	movw	r18, r6
    1b24:	c2 01       	movw	r24, r4
    1b26:	b1 01       	movw	r22, r2
    1b28:	0e 94 7c 10 	call	0x20f8	; 0x20f8 <__mulsf3>
    1b2c:	9b 01       	movw	r18, r22
    1b2e:	ac 01       	movw	r20, r24
    1b30:	c8 01       	movw	r24, r16
    1b32:	b7 01       	movw	r22, r14
    1b34:	0e 94 4f 10 	call	0x209e	; 0x209e <__addsf3>
    1b38:	7b 01       	movw	r14, r22
    1b3a:	8c 01       	movw	r16, r24
    1b3c:	a6 01       	movw	r20, r12
    1b3e:	95 01       	movw	r18, r10
    1b40:	69 81       	ldd	r22, Y+1	; 0x01
    1b42:	7a 81       	ldd	r23, Y+2	; 0x02
    1b44:	8b 81       	ldd	r24, Y+3	; 0x03
    1b46:	9c 81       	ldd	r25, Y+4	; 0x04
    1b48:	0e 94 7c 10 	call	0x20f8	; 0x20f8 <__mulsf3>
    1b4c:	9b 01       	movw	r18, r22
    1b4e:	ac 01       	movw	r20, r24
    1b50:	c8 01       	movw	r24, r16
    1b52:	b7 01       	movw	r22, r14
    1b54:	0e 94 4f 10 	call	0x209e	; 0x209e <__addsf3>
    1b58:	20 91 e0 01 	lds	r18, 0x01E0
    1b5c:	30 91 e1 01 	lds	r19, 0x01E1
    1b60:	40 91 e2 01 	lds	r20, 0x01E2
    1b64:	50 91 e3 01 	lds	r21, 0x01E3
    1b68:	0e 94 4f 10 	call	0x209e	; 0x209e <__addsf3>
    1b6c:	af 85       	ldd	r26, Y+15	; 0x0f
    1b6e:	b8 89       	ldd	r27, Y+16	; 0x10
    1b70:	6d 93       	st	X+, r22
    1b72:	7d 93       	st	X+, r23
    1b74:	8d 93       	st	X+, r24
    1b76:	9c 93       	st	X, r25
    1b78:	13 97       	sbiw	r26, 0x03	; 3
    1b7a:	20 e0       	ldi	r18, 0x00	; 0
    1b7c:	30 e0       	ldi	r19, 0x00	; 0
    1b7e:	40 e4       	ldi	r20, 0x40	; 64
    1b80:	50 e4       	ldi	r21, 0x40	; 64
    1b82:	6d 81       	ldd	r22, Y+5	; 0x05
    1b84:	7e 81       	ldd	r23, Y+6	; 0x06
    1b86:	8f 81       	ldd	r24, Y+7	; 0x07
    1b88:	98 85       	ldd	r25, Y+8	; 0x08
    1b8a:	0e 94 7c 10 	call	0x20f8	; 0x20f8 <__mulsf3>
    1b8e:	a4 01       	movw	r20, r8
    1b90:	93 01       	movw	r18, r6
    1b92:	0e 94 7c 10 	call	0x20f8	; 0x20f8 <__mulsf3>
    1b96:	7b 01       	movw	r14, r22
    1b98:	8c 01       	movw	r16, r24
    1b9a:	a2 01       	movw	r20, r4
    1b9c:	91 01       	movw	r18, r2
    1b9e:	c2 01       	movw	r24, r4
    1ba0:	b1 01       	movw	r22, r2
    1ba2:	0e 94 4f 10 	call	0x209e	; 0x209e <__addsf3>
    1ba6:	a6 01       	movw	r20, r12
    1ba8:	95 01       	movw	r18, r10
    1baa:	0e 94 7c 10 	call	0x20f8	; 0x20f8 <__mulsf3>
    1bae:	9b 01       	movw	r18, r22
    1bb0:	ac 01       	movw	r20, r24
    1bb2:	c8 01       	movw	r24, r16
    1bb4:	b7 01       	movw	r22, r14
    1bb6:	0e 94 4f 10 	call	0x209e	; 0x209e <__addsf3>
    1bba:	29 81       	ldd	r18, Y+1	; 0x01
    1bbc:	3a 81       	ldd	r19, Y+2	; 0x02
    1bbe:	4b 81       	ldd	r20, Y+3	; 0x03
    1bc0:	5c 81       	ldd	r21, Y+4	; 0x04
    1bc2:	0e 94 4f 10 	call	0x209e	; 0x209e <__addsf3>
    1bc6:	29 85       	ldd	r18, Y+9	; 0x09
    1bc8:	3a 85       	ldd	r19, Y+10	; 0x0a
    1bca:	4b 85       	ldd	r20, Y+11	; 0x0b
    1bcc:	5c 85       	ldd	r21, Y+12	; 0x0c
    1bce:	0e 94 9a 11 	call	0x2334	; 0x2334 <__divsf3>
    1bd2:	ed 85       	ldd	r30, Y+13	; 0x0d
    1bd4:	fe 85       	ldd	r31, Y+14	; 0x0e
    1bd6:	60 83       	st	Z, r22
    1bd8:	71 83       	std	Z+1, r23	; 0x01
    1bda:	82 83       	std	Z+2, r24	; 0x02
    1bdc:	93 83       	std	Z+3, r25	; 0x03
    1bde:	60 96       	adiw	r28, 0x10	; 16
    1be0:	0f b6       	in	r0, 0x3f	; 63
    1be2:	f8 94       	cli
    1be4:	de bf       	out	0x3e, r29	; 62
    1be6:	0f be       	out	0x3f, r0	; 63
    1be8:	cd bf       	out	0x3d, r28	; 61
    1bea:	df 91       	pop	r29
    1bec:	cf 91       	pop	r28
    1bee:	1f 91       	pop	r17
    1bf0:	0f 91       	pop	r16
    1bf2:	ff 90       	pop	r15
    1bf4:	ef 90       	pop	r14
    1bf6:	df 90       	pop	r13
    1bf8:	cf 90       	pop	r12
    1bfa:	bf 90       	pop	r11
    1bfc:	af 90       	pop	r10
    1bfe:	9f 90       	pop	r9
    1c00:	8f 90       	pop	r8
    1c02:	7f 90       	pop	r7
    1c04:	6f 90       	pop	r6
    1c06:	5f 90       	pop	r5
    1c08:	4f 90       	pop	r4
    1c0a:	3f 90       	pop	r3
    1c0c:	2f 90       	pop	r2
    1c0e:	08 95       	ret

00001c10 <banks_defaults>:
    1c10:	08 95       	ret

00001c12 <banks_read_word>:
    1c12:	e8 2f       	mov	r30, r24
    1c14:	8f b7       	in	r24, 0x3f	; 63
    1c16:	f8 94       	cli
    1c18:	ff 27       	eor	r31, r31
    1c1a:	8f bf       	out	0x3f, r24	; 63
    1c1c:	36 e0       	ldi	r19, 0x06	; 6
    1c1e:	ee 0f       	add	r30, r30
    1c20:	ff 1f       	adc	r31, r31
    1c22:	3a 95       	dec	r19
    1c24:	e1 f7       	brne	.-8      	; 0x1c1e <banks_read_word+0xc>
    1c26:	e9 5b       	subi	r30, 0xB9	; 185
    1c28:	fd 4f       	sbci	r31, 0xFD	; 253
    1c2a:	df 01       	movw	r26, r30
    1c2c:	a6 0f       	add	r26, r22
    1c2e:	b1 1d       	adc	r27, r1
    1c30:	8c 91       	ld	r24, X
    1c32:	99 27       	eor	r25, r25
    1c34:	98 2f       	mov	r25, r24
    1c36:	88 27       	eor	r24, r24
    1c38:	e4 0f       	add	r30, r20
    1c3a:	f1 1d       	adc	r31, r1
    1c3c:	20 81       	ld	r18, Z
    1c3e:	33 27       	eor	r19, r19
    1c40:	82 2b       	or	r24, r18
    1c42:	93 2b       	or	r25, r19
    1c44:	08 95       	ret

00001c46 <banks_write_word>:
    1c46:	e8 2f       	mov	r30, r24
    1c48:	5f b7       	in	r21, 0x3f	; 63
    1c4a:	f8 94       	cli
    1c4c:	ff 27       	eor	r31, r31
    1c4e:	76 e0       	ldi	r23, 0x06	; 6
    1c50:	ee 0f       	add	r30, r30
    1c52:	ff 1f       	adc	r31, r31
    1c54:	7a 95       	dec	r23
    1c56:	e1 f7       	brne	.-8      	; 0x1c50 <banks_write_word+0xa>
    1c58:	e9 5b       	subi	r30, 0xB9	; 185
    1c5a:	fd 4f       	sbci	r31, 0xFD	; 253
    1c5c:	df 01       	movw	r26, r30
    1c5e:	a6 0f       	add	r26, r22
    1c60:	b1 1d       	adc	r27, r1
    1c62:	83 2f       	mov	r24, r19
    1c64:	99 27       	eor	r25, r25
    1c66:	8c 93       	st	X, r24
    1c68:	e4 0f       	add	r30, r20
    1c6a:	f1 1d       	adc	r31, r1
    1c6c:	20 83       	st	Z, r18
    1c6e:	5f bf       	out	0x3f, r21	; 63
    1c70:	08 95       	ret

00001c72 <banks_update_registers>:
    1c72:	0e 94 98 0e 	call	0x1d30	; 0x1d30 <alert_check>
    1c76:	08 95       	ret

00001c78 <banks_init>:
    1c78:	e7 e4       	ldi	r30, 0x47	; 71
    1c7a:	f2 e0       	ldi	r31, 0x02	; 2
    1c7c:	80 e4       	ldi	r24, 0x40	; 64
    1c7e:	df 01       	movw	r26, r30
    1c80:	98 2f       	mov	r25, r24
    1c82:	1d 92       	st	X+, r1
    1c84:	9a 95       	dec	r25
    1c86:	e9 f7       	brne	.-6      	; 0x1c82 <banks_init+0xa>
    1c88:	e0 5c       	subi	r30, 0xC0	; 192
    1c8a:	ff 4f       	sbci	r31, 0xFF	; 255
    1c8c:	a3 e0       	ldi	r26, 0x03	; 3
    1c8e:	e7 30       	cpi	r30, 0x07	; 7
    1c90:	fa 07       	cpc	r31, r26
    1c92:	a9 f7       	brne	.-22     	; 0x1c7e <banks_init+0x6>
    1c94:	10 92 2d 02 	sts	0x022D, r1
    1c98:	0e 94 91 0e 	call	0x1d22	; 0x1d22 <alert_init>
    1c9c:	08 95       	ret

00001c9e <banks_save_registers>:
    1c9e:	e7 ec       	ldi	r30, 0xC7	; 199
    1ca0:	f2 e0       	ldi	r31, 0x02	; 2
    1ca2:	80 e1       	ldi	r24, 0x10	; 16
    1ca4:	aa e1       	ldi	r26, 0x1A	; 26
    1ca6:	b0 e0       	ldi	r27, 0x00	; 0
    1ca8:	18 2e       	mov	r1, r24
    1caa:	0e 94 52 15 	call	0x2aa4	; 0x2aa4 <__eeprom_write_block_1F2021>
    1cae:	e7 e8       	ldi	r30, 0x87	; 135
    1cb0:	f2 e0       	ldi	r31, 0x02	; 2
    1cb2:	86 e0       	ldi	r24, 0x06	; 6
    1cb4:	aa e2       	ldi	r26, 0x2A	; 42
    1cb6:	b0 e0       	ldi	r27, 0x00	; 0
    1cb8:	18 2e       	mov	r1, r24
    1cba:	0e 94 52 15 	call	0x2aa4	; 0x2aa4 <__eeprom_write_block_1F2021>
    1cbe:	81 e0       	ldi	r24, 0x01	; 1
    1cc0:	90 e0       	ldi	r25, 0x00	; 0
    1cc2:	08 95       	ret

00001cc4 <banks_restore_registers>:
    1cc4:	e7 ec       	ldi	r30, 0xC7	; 199
    1cc6:	f2 e0       	ldi	r31, 0x02	; 2
    1cc8:	80 e1       	ldi	r24, 0x10	; 16
    1cca:	aa e1       	ldi	r26, 0x1A	; 26
    1ccc:	b0 e0       	ldi	r27, 0x00	; 0
    1cce:	18 2e       	mov	r1, r24
    1cd0:	0e 94 4d 15 	call	0x2a9a	; 0x2a9a <__eeprom_read_block_1F2021>
    1cd4:	e7 e8       	ldi	r30, 0x87	; 135
    1cd6:	f2 e0       	ldi	r31, 0x02	; 2
    1cd8:	86 e0       	ldi	r24, 0x06	; 6
    1cda:	aa e2       	ldi	r26, 0x2A	; 42
    1cdc:	b0 e0       	ldi	r27, 0x00	; 0
    1cde:	18 2e       	mov	r1, r24
    1ce0:	0e 94 4d 15 	call	0x2a9a	; 0x2a9a <__eeprom_read_block_1F2021>
    1ce4:	81 e0       	ldi	r24, 0x01	; 1
    1ce6:	90 e0       	ldi	r25, 0x00	; 0
    1ce8:	08 95       	ret

00001cea <alert_defaults>:
    1cea:	08 95       	ret

00001cec <alert_pwm_throttle>:
    1cec:	9c 01       	movw	r18, r24
    1cee:	80 91 e4 01 	lds	r24, 0x01E4
    1cf2:	90 91 e5 01 	lds	r25, 0x01E5
    1cf6:	21 15       	cp	r18, r1
    1cf8:	31 05       	cpc	r19, r1
    1cfa:	31 f0       	breq	.+12     	; 0x1d08 <alert_pwm_throttle+0x1c>
    1cfc:	88 0f       	add	r24, r24
    1cfe:	99 1f       	adc	r25, r25
    1d00:	28 1b       	sub	r18, r24
    1d02:	39 0b       	sbc	r19, r25
    1d04:	c9 01       	movw	r24, r18
    1d06:	08 95       	ret
    1d08:	88 0f       	add	r24, r24
    1d0a:	99 1f       	adc	r25, r25
    1d0c:	08 95       	ret

00001d0e <alert_setbit>:
    1d0e:	21 e0       	ldi	r18, 0x01	; 1
    1d10:	30 e0       	ldi	r19, 0x00	; 0
    1d12:	02 c0       	rjmp	.+4      	; 0x1d18 <alert_setbit+0xa>
    1d14:	22 0f       	add	r18, r18
    1d16:	33 1f       	adc	r19, r19
    1d18:	6a 95       	dec	r22
    1d1a:	e2 f7       	brpl	.-8      	; 0x1d14 <alert_setbit+0x6>
    1d1c:	82 2b       	or	r24, r18
    1d1e:	99 27       	eor	r25, r25
    1d20:	08 95       	ret

00001d22 <alert_init>:
    1d22:	10 92 47 02 	sts	0x0247, r1
    1d26:	10 92 e5 01 	sts	0x01E5, r1
    1d2a:	10 92 e4 01 	sts	0x01E4, r1
    1d2e:	08 95       	ret

00001d30 <alert_check>:
    1d30:	df 92       	push	r13
    1d32:	ef 92       	push	r14
    1d34:	ff 92       	push	r15
    1d36:	0f 93       	push	r16
    1d38:	1f 93       	push	r17
    1d3a:	cf 93       	push	r28
    1d3c:	df 93       	push	r29
    1d3e:	65 e1       	ldi	r22, 0x15	; 21
    1d40:	84 e1       	ldi	r24, 0x14	; 20
    1d42:	0e 94 2a 02 	call	0x454	; 0x454 <registers_read_word>
    1d46:	08 2f       	mov	r16, r24
    1d48:	6d e0       	ldi	r22, 0x0D	; 13
    1d4a:	8c e0       	ldi	r24, 0x0C	; 12
    1d4c:	0e 94 2a 02 	call	0x454	; 0x454 <registers_read_word>
    1d50:	d8 2e       	mov	r13, r24
    1d52:	43 e0       	ldi	r20, 0x03	; 3
    1d54:	62 e0       	ldi	r22, 0x02	; 2
    1d56:	81 e0       	ldi	r24, 0x01	; 1
    1d58:	0e 94 09 0e 	call	0x1c12	; 0x1c12 <banks_read_word>
    1d5c:	7c 01       	movw	r14, r24
    1d5e:	45 e0       	ldi	r20, 0x05	; 5
    1d60:	64 e0       	ldi	r22, 0x04	; 4
    1d62:	81 e0       	ldi	r24, 0x01	; 1
    1d64:	0e 94 09 0e 	call	0x1c12	; 0x1c12 <banks_read_word>
    1d68:	ec 01       	movw	r28, r24
    1d6a:	41 e0       	ldi	r20, 0x01	; 1
    1d6c:	60 e0       	ldi	r22, 0x00	; 0
    1d6e:	81 e0       	ldi	r24, 0x01	; 1
    1d70:	0e 94 09 0e 	call	0x1c12	; 0x1c12 <banks_read_word>
    1d74:	28 2f       	mov	r18, r24
    1d76:	e0 16       	cp	r14, r16
    1d78:	20 f4       	brcc	.+8      	; 0x1d82 <alert_check+0x52>
    1d7a:	ee 20       	and	r14, r14
    1d7c:	11 f0       	breq	.+4      	; 0x1d82 <alert_check+0x52>
    1d7e:	82 e0       	ldi	r24, 0x02	; 2
    1d80:	05 c0       	rjmp	.+10     	; 0x1d8c <alert_check+0x5c>
    1d82:	0c 17       	cp	r16, r28
    1d84:	28 f4       	brcc	.+10     	; 0x1d90 <alert_check+0x60>
    1d86:	cc 23       	and	r28, r28
    1d88:	19 f0       	breq	.+6      	; 0x1d90 <alert_check+0x60>
    1d8a:	84 e0       	ldi	r24, 0x04	; 4
    1d8c:	80 93 47 02 	sts	0x0247, r24
    1d90:	2d 15       	cp	r18, r13
    1d92:	68 f4       	brcc	.+26     	; 0x1dae <alert_check+0x7e>
    1d94:	22 23       	and	r18, r18
    1d96:	59 f0       	breq	.+22     	; 0x1dae <alert_check+0x7e>
    1d98:	81 e0       	ldi	r24, 0x01	; 1
    1d9a:	80 93 47 02 	sts	0x0247, r24
    1d9e:	8d 2d       	mov	r24, r13
    1da0:	99 27       	eor	r25, r25
    1da2:	82 1b       	sub	r24, r18
    1da4:	91 09       	sbc	r25, r1
    1da6:	90 93 e5 01 	sts	0x01E5, r25
    1daa:	80 93 e4 01 	sts	0x01E4, r24
    1dae:	80 91 e4 01 	lds	r24, 0x01E4
    1db2:	90 91 e5 01 	lds	r25, 0x01E5
    1db6:	00 97       	sbiw	r24, 0x00	; 0
    1db8:	61 f0       	breq	.+24     	; 0x1dd2 <alert_check+0xa2>
    1dba:	01 97       	sbiw	r24, 0x01	; 1
    1dbc:	90 93 e5 01 	sts	0x01E5, r25
    1dc0:	80 93 e4 01 	sts	0x01E4, r24
    1dc4:	00 97       	sbiw	r24, 0x00	; 0
    1dc6:	29 f0       	breq	.+10     	; 0x1dd2 <alert_check+0xa2>
    1dc8:	01 97       	sbiw	r24, 0x01	; 1
    1dca:	90 93 e5 01 	sts	0x01E5, r25
    1dce:	80 93 e4 01 	sts	0x01E4, r24
    1dd2:	df 91       	pop	r29
    1dd4:	cf 91       	pop	r28
    1dd6:	1f 91       	pop	r17
    1dd8:	0f 91       	pop	r16
    1dda:	ff 90       	pop	r15
    1ddc:	ef 90       	pop	r14
    1dde:	df 90       	pop	r13
    1de0:	08 95       	ret

00001de2 <_fpadd_parts>:
    1de2:	a0 e0       	ldi	r26, 0x00	; 0
    1de4:	b0 e0       	ldi	r27, 0x00	; 0
    1de6:	e7 ef       	ldi	r30, 0xF7	; 247
    1de8:	fe e0       	ldi	r31, 0x0E	; 14
    1dea:	0c 94 1a 15 	jmp	0x2a34	; 0x2a34 <__prologue_saves__+0x8>
    1dee:	fc 01       	movw	r30, r24
    1df0:	6a 01       	movw	r12, r20
    1df2:	90 81       	ld	r25, Z
    1df4:	92 30       	cpi	r25, 0x02	; 2
    1df6:	08 f4       	brcc	.+2      	; 0x1dfa <_fpadd_parts+0x18>
    1df8:	1b c1       	rjmp	.+566    	; 0x2030 <_fpadd_parts+0x24e>
    1dfa:	db 01       	movw	r26, r22
    1dfc:	8c 91       	ld	r24, X
    1dfe:	82 30       	cpi	r24, 0x02	; 2
    1e00:	80 f0       	brcs	.+32     	; 0x1e22 <_fpadd_parts+0x40>
    1e02:	94 30       	cpi	r25, 0x04	; 4
    1e04:	61 f4       	brne	.+24     	; 0x1e1e <_fpadd_parts+0x3c>
    1e06:	84 30       	cpi	r24, 0x04	; 4
    1e08:	09 f0       	breq	.+2      	; 0x1e0c <_fpadd_parts+0x2a>
    1e0a:	12 c1       	rjmp	.+548    	; 0x2030 <_fpadd_parts+0x24e>
    1e0c:	91 81       	ldd	r25, Z+1	; 0x01
    1e0e:	eb 01       	movw	r28, r22
    1e10:	89 81       	ldd	r24, Y+1	; 0x01
    1e12:	98 17       	cp	r25, r24
    1e14:	09 f4       	brne	.+2      	; 0x1e18 <_fpadd_parts+0x36>
    1e16:	0c c1       	rjmp	.+536    	; 0x2030 <_fpadd_parts+0x24e>
    1e18:	e0 e0       	ldi	r30, 0x00	; 0
    1e1a:	f1 e0       	ldi	r31, 0x01	; 1
    1e1c:	09 c1       	rjmp	.+530    	; 0x2030 <_fpadd_parts+0x24e>
    1e1e:	84 30       	cpi	r24, 0x04	; 4
    1e20:	11 f4       	brne	.+4      	; 0x1e26 <_fpadd_parts+0x44>
    1e22:	fb 01       	movw	r30, r22
    1e24:	05 c1       	rjmp	.+522    	; 0x2030 <_fpadd_parts+0x24e>
    1e26:	82 30       	cpi	r24, 0x02	; 2
    1e28:	91 f4       	brne	.+36     	; 0x1e4e <_fpadd_parts+0x6c>
    1e2a:	92 30       	cpi	r25, 0x02	; 2
    1e2c:	09 f0       	breq	.+2      	; 0x1e30 <_fpadd_parts+0x4e>
    1e2e:	00 c1       	rjmp	.+512    	; 0x2030 <_fpadd_parts+0x24e>
    1e30:	ea 01       	movw	r28, r20
    1e32:	df 01       	movw	r26, r30
    1e34:	88 e0       	ldi	r24, 0x08	; 8
    1e36:	0d 90       	ld	r0, X+
    1e38:	09 92       	st	Y+, r0
    1e3a:	81 50       	subi	r24, 0x01	; 1
    1e3c:	e1 f7       	brne	.-8      	; 0x1e36 <_fpadd_parts+0x54>
    1e3e:	81 81       	ldd	r24, Z+1	; 0x01
    1e40:	fb 01       	movw	r30, r22
    1e42:	91 81       	ldd	r25, Z+1	; 0x01
    1e44:	89 23       	and	r24, r25
    1e46:	e6 01       	movw	r28, r12
    1e48:	89 83       	std	Y+1, r24	; 0x01
    1e4a:	f6 01       	movw	r30, r12
    1e4c:	f1 c0       	rjmp	.+482    	; 0x2030 <_fpadd_parts+0x24e>
    1e4e:	92 30       	cpi	r25, 0x02	; 2
    1e50:	41 f3       	breq	.-48     	; 0x1e22 <_fpadd_parts+0x40>
    1e52:	62 80       	ldd	r6, Z+2	; 0x02
    1e54:	73 80       	ldd	r7, Z+3	; 0x03
    1e56:	eb 01       	movw	r28, r22
    1e58:	8a 80       	ldd	r8, Y+2	; 0x02
    1e5a:	9b 80       	ldd	r9, Y+3	; 0x03
    1e5c:	e4 80       	ldd	r14, Z+4	; 0x04
    1e5e:	f5 80       	ldd	r15, Z+5	; 0x05
    1e60:	06 81       	ldd	r16, Z+6	; 0x06
    1e62:	17 81       	ldd	r17, Z+7	; 0x07
    1e64:	2c 81       	ldd	r18, Y+4	; 0x04
    1e66:	3d 81       	ldd	r19, Y+5	; 0x05
    1e68:	4e 81       	ldd	r20, Y+6	; 0x06
    1e6a:	5f 81       	ldd	r21, Y+7	; 0x07
    1e6c:	53 01       	movw	r10, r6
    1e6e:	a8 18       	sub	r10, r8
    1e70:	b9 08       	sbc	r11, r9
    1e72:	c5 01       	movw	r24, r10
    1e74:	b7 fc       	sbrc	r11, 7
    1e76:	ab c0       	rjmp	.+342    	; 0x1fce <_fpadd_parts+0x1ec>
    1e78:	80 97       	sbiw	r24, 0x20	; 32
    1e7a:	0c f4       	brge	.+2      	; 0x1e7e <_fpadd_parts+0x9c>
    1e7c:	57 c0       	rjmp	.+174    	; 0x1f2c <_fpadd_parts+0x14a>
    1e7e:	86 14       	cp	r8, r6
    1e80:	97 04       	cpc	r9, r7
    1e82:	0c f4       	brge	.+2      	; 0x1e86 <_fpadd_parts+0xa4>
    1e84:	be c0       	rjmp	.+380    	; 0x2002 <_fpadd_parts+0x220>
    1e86:	34 01       	movw	r6, r8
    1e88:	ee 24       	eor	r14, r14
    1e8a:	ff 24       	eor	r15, r15
    1e8c:	87 01       	movw	r16, r14
    1e8e:	91 81       	ldd	r25, Z+1	; 0x01
    1e90:	fb 01       	movw	r30, r22
    1e92:	81 81       	ldd	r24, Z+1	; 0x01
    1e94:	98 17       	cp	r25, r24
    1e96:	09 f4       	brne	.+2      	; 0x1e9a <_fpadd_parts+0xb8>
    1e98:	a6 c0       	rjmp	.+332    	; 0x1fe6 <_fpadd_parts+0x204>
    1e9a:	99 23       	and	r25, r25
    1e9c:	09 f4       	brne	.+2      	; 0x1ea0 <_fpadd_parts+0xbe>
    1e9e:	9c c0       	rjmp	.+312    	; 0x1fd8 <_fpadd_parts+0x1f6>
    1ea0:	2e 19       	sub	r18, r14
    1ea2:	3f 09       	sbc	r19, r15
    1ea4:	40 0b       	sbc	r20, r16
    1ea6:	51 0b       	sbc	r21, r17
    1ea8:	57 fd       	sbrc	r21, 7
    1eaa:	b0 c0       	rjmp	.+352    	; 0x200c <_fpadd_parts+0x22a>
    1eac:	e6 01       	movw	r28, r12
    1eae:	19 82       	std	Y+1, r1	; 0x01
    1eb0:	7b 82       	std	Y+3, r7	; 0x03
    1eb2:	6a 82       	std	Y+2, r6	; 0x02
    1eb4:	f6 01       	movw	r30, r12
    1eb6:	24 83       	std	Z+4, r18	; 0x04
    1eb8:	35 83       	std	Z+5, r19	; 0x05
    1eba:	46 83       	std	Z+6, r20	; 0x06
    1ebc:	57 83       	std	Z+7, r21	; 0x07
    1ebe:	e6 01       	movw	r28, r12
    1ec0:	2c 81       	ldd	r18, Y+4	; 0x04
    1ec2:	3d 81       	ldd	r19, Y+5	; 0x05
    1ec4:	4e 81       	ldd	r20, Y+6	; 0x06
    1ec6:	5f 81       	ldd	r21, Y+7	; 0x07
    1ec8:	79 01       	movw	r14, r18
    1eca:	8a 01       	movw	r16, r20
    1ecc:	da 01       	movw	r26, r20
    1ece:	c9 01       	movw	r24, r18
    1ed0:	01 97       	sbiw	r24, 0x01	; 1
    1ed2:	a1 09       	sbc	r26, r1
    1ed4:	b1 09       	sbc	r27, r1
    1ed6:	8f 5f       	subi	r24, 0xFF	; 255
    1ed8:	9f 4f       	sbci	r25, 0xFF	; 255
    1eda:	af 4f       	sbci	r26, 0xFF	; 255
    1edc:	bf 43       	sbci	r27, 0x3F	; 63
    1ede:	f8 f4       	brcc	.+62     	; 0x1f1e <_fpadd_parts+0x13c>
    1ee0:	e6 01       	movw	r28, r12
    1ee2:	6a 81       	ldd	r22, Y+2	; 0x02
    1ee4:	7b 81       	ldd	r23, Y+3	; 0x03
    1ee6:	a8 01       	movw	r20, r16
    1ee8:	97 01       	movw	r18, r14
    1eea:	22 0f       	add	r18, r18
    1eec:	33 1f       	adc	r19, r19
    1eee:	44 1f       	adc	r20, r20
    1ef0:	55 1f       	adc	r21, r21
    1ef2:	61 50       	subi	r22, 0x01	; 1
    1ef4:	70 40       	sbci	r23, 0x00	; 0
    1ef6:	79 01       	movw	r14, r18
    1ef8:	8a 01       	movw	r16, r20
    1efa:	da 01       	movw	r26, r20
    1efc:	c9 01       	movw	r24, r18
    1efe:	01 97       	sbiw	r24, 0x01	; 1
    1f00:	a1 09       	sbc	r26, r1
    1f02:	b1 09       	sbc	r27, r1
    1f04:	8f 5f       	subi	r24, 0xFF	; 255
    1f06:	9f 4f       	sbci	r25, 0xFF	; 255
    1f08:	af 4f       	sbci	r26, 0xFF	; 255
    1f0a:	bf 43       	sbci	r27, 0x3F	; 63
    1f0c:	60 f3       	brcs	.-40     	; 0x1ee6 <_fpadd_parts+0x104>
    1f0e:	e6 01       	movw	r28, r12
    1f10:	7b 83       	std	Y+3, r23	; 0x03
    1f12:	6a 83       	std	Y+2, r22	; 0x02
    1f14:	f6 01       	movw	r30, r12
    1f16:	24 83       	std	Z+4, r18	; 0x04
    1f18:	35 83       	std	Z+5, r19	; 0x05
    1f1a:	46 83       	std	Z+6, r20	; 0x06
    1f1c:	57 83       	std	Z+7, r21	; 0x07
    1f1e:	83 e0       	ldi	r24, 0x03	; 3
    1f20:	d6 01       	movw	r26, r12
    1f22:	8c 93       	st	X, r24
    1f24:	57 fd       	sbrc	r21, 7
    1f26:	39 c0       	rjmp	.+114    	; 0x1f9a <_fpadd_parts+0x1b8>
    1f28:	f6 01       	movw	r30, r12
    1f2a:	82 c0       	rjmp	.+260    	; 0x2030 <_fpadd_parts+0x24e>
    1f2c:	86 14       	cp	r8, r6
    1f2e:	97 04       	cpc	r9, r7
    1f30:	b4 f4       	brge	.+44     	; 0x1f5e <_fpadd_parts+0x17c>
    1f32:	c0 e0       	ldi	r28, 0x00	; 0
    1f34:	d0 e0       	ldi	r29, 0x00	; 0
    1f36:	da 01       	movw	r26, r20
    1f38:	c9 01       	movw	r24, r18
    1f3a:	81 70       	andi	r24, 0x01	; 1
    1f3c:	90 70       	andi	r25, 0x00	; 0
    1f3e:	a0 70       	andi	r26, 0x00	; 0
    1f40:	b0 70       	andi	r27, 0x00	; 0
    1f42:	56 95       	lsr	r21
    1f44:	47 95       	ror	r20
    1f46:	37 95       	ror	r19
    1f48:	27 95       	ror	r18
    1f4a:	28 2b       	or	r18, r24
    1f4c:	39 2b       	or	r19, r25
    1f4e:	4a 2b       	or	r20, r26
    1f50:	5b 2b       	or	r21, r27
    1f52:	21 96       	adiw	r28, 0x01	; 1
    1f54:	ac 16       	cp	r10, r28
    1f56:	bd 06       	cpc	r11, r29
    1f58:	71 f7       	brne	.-36     	; 0x1f36 <_fpadd_parts+0x154>
    1f5a:	8a 0c       	add	r8, r10
    1f5c:	9b 1c       	adc	r9, r11
    1f5e:	68 14       	cp	r6, r8
    1f60:	79 04       	cpc	r7, r9
    1f62:	0c f0       	brlt	.+2      	; 0x1f66 <_fpadd_parts+0x184>
    1f64:	94 cf       	rjmp	.-216    	; 0x1e8e <_fpadd_parts+0xac>
    1f66:	c0 e0       	ldi	r28, 0x00	; 0
    1f68:	d0 e0       	ldi	r29, 0x00	; 0
    1f6a:	54 01       	movw	r10, r8
    1f6c:	a6 18       	sub	r10, r6
    1f6e:	b7 08       	sbc	r11, r7
    1f70:	d8 01       	movw	r26, r16
    1f72:	c7 01       	movw	r24, r14
    1f74:	81 70       	andi	r24, 0x01	; 1
    1f76:	90 70       	andi	r25, 0x00	; 0
    1f78:	a0 70       	andi	r26, 0x00	; 0
    1f7a:	b0 70       	andi	r27, 0x00	; 0
    1f7c:	16 95       	lsr	r17
    1f7e:	07 95       	ror	r16
    1f80:	f7 94       	ror	r15
    1f82:	e7 94       	ror	r14
    1f84:	e8 2a       	or	r14, r24
    1f86:	f9 2a       	or	r15, r25
    1f88:	0a 2b       	or	r16, r26
    1f8a:	1b 2b       	or	r17, r27
    1f8c:	21 96       	adiw	r28, 0x01	; 1
    1f8e:	ac 16       	cp	r10, r28
    1f90:	bd 06       	cpc	r11, r29
    1f92:	71 f7       	brne	.-36     	; 0x1f70 <_fpadd_parts+0x18e>
    1f94:	6a 0c       	add	r6, r10
    1f96:	7b 1c       	adc	r7, r11
    1f98:	7a cf       	rjmp	.-268    	; 0x1e8e <_fpadd_parts+0xac>
    1f9a:	da 01       	movw	r26, r20
    1f9c:	c9 01       	movw	r24, r18
    1f9e:	b6 95       	lsr	r27
    1fa0:	a7 95       	ror	r26
    1fa2:	97 95       	ror	r25
    1fa4:	87 95       	ror	r24
    1fa6:	21 70       	andi	r18, 0x01	; 1
    1fa8:	30 70       	andi	r19, 0x00	; 0
    1faa:	40 70       	andi	r20, 0x00	; 0
    1fac:	50 70       	andi	r21, 0x00	; 0
    1fae:	28 2b       	or	r18, r24
    1fb0:	39 2b       	or	r19, r25
    1fb2:	4a 2b       	or	r20, r26
    1fb4:	5b 2b       	or	r21, r27
    1fb6:	e6 01       	movw	r28, r12
    1fb8:	2c 83       	std	Y+4, r18	; 0x04
    1fba:	3d 83       	std	Y+5, r19	; 0x05
    1fbc:	4e 83       	std	Y+6, r20	; 0x06
    1fbe:	5f 83       	std	Y+7, r21	; 0x07
    1fc0:	8a 81       	ldd	r24, Y+2	; 0x02
    1fc2:	9b 81       	ldd	r25, Y+3	; 0x03
    1fc4:	01 96       	adiw	r24, 0x01	; 1
    1fc6:	9b 83       	std	Y+3, r25	; 0x03
    1fc8:	8a 83       	std	Y+2, r24	; 0x02
    1fca:	f6 01       	movw	r30, r12
    1fcc:	31 c0       	rjmp	.+98     	; 0x2030 <_fpadd_parts+0x24e>
    1fce:	88 27       	eor	r24, r24
    1fd0:	99 27       	eor	r25, r25
    1fd2:	8a 19       	sub	r24, r10
    1fd4:	9b 09       	sbc	r25, r11
    1fd6:	50 cf       	rjmp	.-352    	; 0x1e78 <_fpadd_parts+0x96>
    1fd8:	e2 1a       	sub	r14, r18
    1fda:	f3 0a       	sbc	r15, r19
    1fdc:	04 0b       	sbc	r16, r20
    1fde:	15 0b       	sbc	r17, r21
    1fe0:	a8 01       	movw	r20, r16
    1fe2:	97 01       	movw	r18, r14
    1fe4:	61 cf       	rjmp	.-318    	; 0x1ea8 <_fpadd_parts+0xc6>
    1fe6:	e6 01       	movw	r28, r12
    1fe8:	99 83       	std	Y+1, r25	; 0x01
    1fea:	7b 82       	std	Y+3, r7	; 0x03
    1fec:	6a 82       	std	Y+2, r6	; 0x02
    1fee:	2e 0d       	add	r18, r14
    1ff0:	3f 1d       	adc	r19, r15
    1ff2:	40 1f       	adc	r20, r16
    1ff4:	51 1f       	adc	r21, r17
    1ff6:	f6 01       	movw	r30, r12
    1ff8:	24 83       	std	Z+4, r18	; 0x04
    1ffa:	35 83       	std	Z+5, r19	; 0x05
    1ffc:	46 83       	std	Z+6, r20	; 0x06
    1ffe:	57 83       	std	Z+7, r21	; 0x07
    2000:	8e cf       	rjmp	.-228    	; 0x1f1e <_fpadd_parts+0x13c>
    2002:	20 e0       	ldi	r18, 0x00	; 0
    2004:	30 e0       	ldi	r19, 0x00	; 0
    2006:	40 e0       	ldi	r20, 0x00	; 0
    2008:	50 e0       	ldi	r21, 0x00	; 0
    200a:	41 cf       	rjmp	.-382    	; 0x1e8e <_fpadd_parts+0xac>
    200c:	81 e0       	ldi	r24, 0x01	; 1
    200e:	e6 01       	movw	r28, r12
    2010:	89 83       	std	Y+1, r24	; 0x01
    2012:	7b 82       	std	Y+3, r7	; 0x03
    2014:	6a 82       	std	Y+2, r6	; 0x02
    2016:	50 95       	com	r21
    2018:	40 95       	com	r20
    201a:	30 95       	com	r19
    201c:	21 95       	neg	r18
    201e:	3f 4f       	sbci	r19, 0xFF	; 255
    2020:	4f 4f       	sbci	r20, 0xFF	; 255
    2022:	5f 4f       	sbci	r21, 0xFF	; 255
    2024:	f6 01       	movw	r30, r12
    2026:	24 83       	std	Z+4, r18	; 0x04
    2028:	35 83       	std	Z+5, r19	; 0x05
    202a:	46 83       	std	Z+6, r20	; 0x06
    202c:	57 83       	std	Z+7, r21	; 0x07
    202e:	47 cf       	rjmp	.-370    	; 0x1ebe <_fpadd_parts+0xdc>
    2030:	cf 01       	movw	r24, r30
    2032:	ee e0       	ldi	r30, 0x0E	; 14
    2034:	cd b7       	in	r28, 0x3d	; 61
    2036:	de b7       	in	r29, 0x3e	; 62
    2038:	0c 94 36 15 	jmp	0x2a6c	; 0x2a6c <__epilogue_restores__+0x8>

0000203c <__subsf3>:
    203c:	a0 e2       	ldi	r26, 0x20	; 32
    203e:	b0 e0       	ldi	r27, 0x00	; 0
    2040:	e4 e2       	ldi	r30, 0x24	; 36
    2042:	f0 e1       	ldi	r31, 0x10	; 16
    2044:	0c 94 22 15 	jmp	0x2a44	; 0x2a44 <__prologue_saves__+0x18>
    2048:	69 83       	std	Y+1, r22	; 0x01
    204a:	7a 83       	std	Y+2, r23	; 0x02
    204c:	8b 83       	std	Y+3, r24	; 0x03
    204e:	9c 83       	std	Y+4, r25	; 0x04
    2050:	2d 83       	std	Y+5, r18	; 0x05
    2052:	3e 83       	std	Y+6, r19	; 0x06
    2054:	4f 83       	std	Y+7, r20	; 0x07
    2056:	58 87       	std	Y+8, r21	; 0x08
    2058:	89 e1       	ldi	r24, 0x19	; 25
    205a:	e8 2e       	mov	r14, r24
    205c:	f1 2c       	mov	r15, r1
    205e:	ec 0e       	add	r14, r28
    2060:	fd 1e       	adc	r15, r29
    2062:	b7 01       	movw	r22, r14
    2064:	ce 01       	movw	r24, r28
    2066:	01 96       	adiw	r24, 0x01	; 1
    2068:	0e 94 2f 14 	call	0x285e	; 0x285e <__unpack_f>
    206c:	8e 01       	movw	r16, r28
    206e:	0f 5e       	subi	r16, 0xEF	; 239
    2070:	1f 4f       	sbci	r17, 0xFF	; 255
    2072:	b8 01       	movw	r22, r16
    2074:	ce 01       	movw	r24, r28
    2076:	05 96       	adiw	r24, 0x05	; 5
    2078:	0e 94 2f 14 	call	0x285e	; 0x285e <__unpack_f>
    207c:	8a 89       	ldd	r24, Y+18	; 0x12
    207e:	91 e0       	ldi	r25, 0x01	; 1
    2080:	89 27       	eor	r24, r25
    2082:	8a 8b       	std	Y+18, r24	; 0x12
    2084:	ae 01       	movw	r20, r28
    2086:	47 5f       	subi	r20, 0xF7	; 247
    2088:	5f 4f       	sbci	r21, 0xFF	; 255
    208a:	b8 01       	movw	r22, r16
    208c:	c7 01       	movw	r24, r14
    208e:	0e 94 f1 0e 	call	0x1de2	; 0x1de2 <_fpadd_parts>
    2092:	0e 94 0d 13 	call	0x261a	; 0x261a <__pack_f>
    2096:	e6 e0       	ldi	r30, 0x06	; 6
    2098:	a0 96       	adiw	r28, 0x20	; 32
    209a:	0c 94 3e 15 	jmp	0x2a7c	; 0x2a7c <__epilogue_restores__+0x18>

0000209e <__addsf3>:
    209e:	a0 e2       	ldi	r26, 0x20	; 32
    20a0:	b0 e0       	ldi	r27, 0x00	; 0
    20a2:	e5 e5       	ldi	r30, 0x55	; 85
    20a4:	f0 e1       	ldi	r31, 0x10	; 16
    20a6:	0c 94 22 15 	jmp	0x2a44	; 0x2a44 <__prologue_saves__+0x18>
    20aa:	69 83       	std	Y+1, r22	; 0x01
    20ac:	7a 83       	std	Y+2, r23	; 0x02
    20ae:	8b 83       	std	Y+3, r24	; 0x03
    20b0:	9c 83       	std	Y+4, r25	; 0x04
    20b2:	2d 83       	std	Y+5, r18	; 0x05
    20b4:	3e 83       	std	Y+6, r19	; 0x06
    20b6:	4f 83       	std	Y+7, r20	; 0x07
    20b8:	58 87       	std	Y+8, r21	; 0x08
    20ba:	99 e1       	ldi	r25, 0x19	; 25
    20bc:	e9 2e       	mov	r14, r25
    20be:	f1 2c       	mov	r15, r1
    20c0:	ec 0e       	add	r14, r28
    20c2:	fd 1e       	adc	r15, r29
    20c4:	b7 01       	movw	r22, r14
    20c6:	ce 01       	movw	r24, r28
    20c8:	01 96       	adiw	r24, 0x01	; 1
    20ca:	0e 94 2f 14 	call	0x285e	; 0x285e <__unpack_f>
    20ce:	8e 01       	movw	r16, r28
    20d0:	0f 5e       	subi	r16, 0xEF	; 239
    20d2:	1f 4f       	sbci	r17, 0xFF	; 255
    20d4:	b8 01       	movw	r22, r16
    20d6:	ce 01       	movw	r24, r28
    20d8:	05 96       	adiw	r24, 0x05	; 5
    20da:	0e 94 2f 14 	call	0x285e	; 0x285e <__unpack_f>
    20de:	ae 01       	movw	r20, r28
    20e0:	47 5f       	subi	r20, 0xF7	; 247
    20e2:	5f 4f       	sbci	r21, 0xFF	; 255
    20e4:	b8 01       	movw	r22, r16
    20e6:	c7 01       	movw	r24, r14
    20e8:	0e 94 f1 0e 	call	0x1de2	; 0x1de2 <_fpadd_parts>
    20ec:	0e 94 0d 13 	call	0x261a	; 0x261a <__pack_f>
    20f0:	e6 e0       	ldi	r30, 0x06	; 6
    20f2:	a0 96       	adiw	r28, 0x20	; 32
    20f4:	0c 94 3e 15 	jmp	0x2a7c	; 0x2a7c <__epilogue_restores__+0x18>

000020f8 <__mulsf3>:
    20f8:	a0 e2       	ldi	r26, 0x20	; 32
    20fa:	b0 e0       	ldi	r27, 0x00	; 0
    20fc:	e2 e8       	ldi	r30, 0x82	; 130
    20fe:	f0 e1       	ldi	r31, 0x10	; 16
    2100:	0c 94 16 15 	jmp	0x2a2c	; 0x2a2c <__prologue_saves__>
    2104:	69 83       	std	Y+1, r22	; 0x01
    2106:	7a 83       	std	Y+2, r23	; 0x02
    2108:	8b 83       	std	Y+3, r24	; 0x03
    210a:	9c 83       	std	Y+4, r25	; 0x04
    210c:	2d 83       	std	Y+5, r18	; 0x05
    210e:	3e 83       	std	Y+6, r19	; 0x06
    2110:	4f 83       	std	Y+7, r20	; 0x07
    2112:	58 87       	std	Y+8, r21	; 0x08
    2114:	8e 01       	movw	r16, r28
    2116:	07 5e       	subi	r16, 0xE7	; 231
    2118:	1f 4f       	sbci	r17, 0xFF	; 255
    211a:	b8 01       	movw	r22, r16
    211c:	ce 01       	movw	r24, r28
    211e:	01 96       	adiw	r24, 0x01	; 1
    2120:	0e 94 2f 14 	call	0x285e	; 0x285e <__unpack_f>
    2124:	f1 e1       	ldi	r31, 0x11	; 17
    2126:	ef 2e       	mov	r14, r31
    2128:	f1 2c       	mov	r15, r1
    212a:	ec 0e       	add	r14, r28
    212c:	fd 1e       	adc	r15, r29
    212e:	b7 01       	movw	r22, r14
    2130:	ce 01       	movw	r24, r28
    2132:	05 96       	adiw	r24, 0x05	; 5
    2134:	0e 94 2f 14 	call	0x285e	; 0x285e <__unpack_f>
    2138:	89 8d       	ldd	r24, Y+25	; 0x19
    213a:	82 30       	cpi	r24, 0x02	; 2
    213c:	78 f0       	brcs	.+30     	; 0x215c <__mulsf3+0x64>
    213e:	99 89       	ldd	r25, Y+17	; 0x11
    2140:	92 30       	cpi	r25, 0x02	; 2
    2142:	40 f4       	brcc	.+16     	; 0x2154 <__mulsf3+0x5c>
    2144:	20 e0       	ldi	r18, 0x00	; 0
    2146:	9a 8d       	ldd	r25, Y+26	; 0x1a
    2148:	8a 89       	ldd	r24, Y+18	; 0x12
    214a:	98 13       	cpse	r25, r24
    214c:	21 e0       	ldi	r18, 0x01	; 1
    214e:	2a 8b       	std	Y+18, r18	; 0x12
    2150:	b7 01       	movw	r22, r14
    2152:	e9 c0       	rjmp	.+466    	; 0x2326 <__mulsf3+0x22e>
    2154:	84 30       	cpi	r24, 0x04	; 4
    2156:	51 f4       	brne	.+20     	; 0x216c <__mulsf3+0x74>
    2158:	92 30       	cpi	r25, 0x02	; 2
    215a:	61 f0       	breq	.+24     	; 0x2174 <__mulsf3+0x7c>
    215c:	20 e0       	ldi	r18, 0x00	; 0
    215e:	9a 8d       	ldd	r25, Y+26	; 0x1a
    2160:	8a 89       	ldd	r24, Y+18	; 0x12
    2162:	98 13       	cpse	r25, r24
    2164:	21 e0       	ldi	r18, 0x01	; 1
    2166:	2a 8f       	std	Y+26, r18	; 0x1a
    2168:	b8 01       	movw	r22, r16
    216a:	dd c0       	rjmp	.+442    	; 0x2326 <__mulsf3+0x22e>
    216c:	94 30       	cpi	r25, 0x04	; 4
    216e:	29 f4       	brne	.+10     	; 0x217a <__mulsf3+0x82>
    2170:	82 30       	cpi	r24, 0x02	; 2
    2172:	41 f7       	brne	.-48     	; 0x2144 <__mulsf3+0x4c>
    2174:	60 e0       	ldi	r22, 0x00	; 0
    2176:	71 e0       	ldi	r23, 0x01	; 1
    2178:	d6 c0       	rjmp	.+428    	; 0x2326 <__mulsf3+0x22e>
    217a:	82 30       	cpi	r24, 0x02	; 2
    217c:	79 f3       	breq	.-34     	; 0x215c <__mulsf3+0x64>
    217e:	92 30       	cpi	r25, 0x02	; 2
    2180:	09 f3       	breq	.-62     	; 0x2144 <__mulsf3+0x4c>
    2182:	2d 8d       	ldd	r18, Y+29	; 0x1d
    2184:	3e 8d       	ldd	r19, Y+30	; 0x1e
    2186:	4f 8d       	ldd	r20, Y+31	; 0x1f
    2188:	58 a1       	ldd	r21, Y+32	; 0x20
    218a:	8d 89       	ldd	r24, Y+21	; 0x15
    218c:	9e 89       	ldd	r25, Y+22	; 0x16
    218e:	af 89       	ldd	r26, Y+23	; 0x17
    2190:	b8 8d       	ldd	r27, Y+24	; 0x18
    2192:	22 24       	eor	r2, r2
    2194:	33 24       	eor	r3, r3
    2196:	21 01       	movw	r4, r2
    2198:	aa 24       	eor	r10, r10
    219a:	bb 24       	eor	r11, r11
    219c:	65 01       	movw	r12, r10
    219e:	ee 24       	eor	r14, r14
    21a0:	ff 24       	eor	r15, r15
    21a2:	87 01       	movw	r16, r14
    21a4:	60 e0       	ldi	r22, 0x00	; 0
    21a6:	70 e0       	ldi	r23, 0x00	; 0
    21a8:	0d c0       	rjmp	.+26     	; 0x21c4 <__mulsf3+0xcc>
    21aa:	6f 5f       	subi	r22, 0xFF	; 255
    21ac:	7f 4f       	sbci	r23, 0xFF	; 255
    21ae:	60 32       	cpi	r22, 0x20	; 32
    21b0:	71 05       	cpc	r23, r1
    21b2:	99 f1       	breq	.+102    	; 0x221a <__mulsf3+0x122>
    21b4:	88 0f       	add	r24, r24
    21b6:	99 1f       	adc	r25, r25
    21b8:	aa 1f       	adc	r26, r26
    21ba:	bb 1f       	adc	r27, r27
    21bc:	56 95       	lsr	r21
    21be:	47 95       	ror	r20
    21c0:	37 95       	ror	r19
    21c2:	27 95       	ror	r18
    21c4:	20 ff       	sbrs	r18, 0
    21c6:	19 c0       	rjmp	.+50     	; 0x21fa <__mulsf3+0x102>
    21c8:	28 0e       	add	r2, r24
    21ca:	39 1e       	adc	r3, r25
    21cc:	4a 1e       	adc	r4, r26
    21ce:	5b 1e       	adc	r5, r27
    21d0:	66 24       	eor	r6, r6
    21d2:	77 24       	eor	r7, r7
    21d4:	43 01       	movw	r8, r6
    21d6:	28 16       	cp	r2, r24
    21d8:	39 06       	cpc	r3, r25
    21da:	4a 06       	cpc	r4, r26
    21dc:	5b 06       	cpc	r5, r27
    21de:	28 f4       	brcc	.+10     	; 0x21ea <__mulsf3+0xf2>
    21e0:	e1 e0       	ldi	r30, 0x01	; 1
    21e2:	6e 2e       	mov	r6, r30
    21e4:	71 2c       	mov	r7, r1
    21e6:	81 2c       	mov	r8, r1
    21e8:	91 2c       	mov	r9, r1
    21ea:	ae 0c       	add	r10, r14
    21ec:	bf 1c       	adc	r11, r15
    21ee:	c0 1e       	adc	r12, r16
    21f0:	d1 1e       	adc	r13, r17
    21f2:	a6 0c       	add	r10, r6
    21f4:	b7 1c       	adc	r11, r7
    21f6:	c8 1c       	adc	r12, r8
    21f8:	d9 1c       	adc	r13, r9
    21fa:	ee 0c       	add	r14, r14
    21fc:	ff 1c       	adc	r15, r15
    21fe:	00 1f       	adc	r16, r16
    2200:	11 1f       	adc	r17, r17
    2202:	b7 ff       	sbrs	r27, 7
    2204:	d2 cf       	rjmp	.-92     	; 0x21aa <__mulsf3+0xb2>
    2206:	e1 e0       	ldi	r30, 0x01	; 1
    2208:	6e 2e       	mov	r6, r30
    220a:	71 2c       	mov	r7, r1
    220c:	81 2c       	mov	r8, r1
    220e:	91 2c       	mov	r9, r1
    2210:	e6 28       	or	r14, r6
    2212:	f7 28       	or	r15, r7
    2214:	08 29       	or	r16, r8
    2216:	19 29       	or	r17, r9
    2218:	c8 cf       	rjmp	.-112    	; 0x21aa <__mulsf3+0xb2>
    221a:	8b 8d       	ldd	r24, Y+27	; 0x1b
    221c:	9c 8d       	ldd	r25, Y+28	; 0x1c
    221e:	2b 89       	ldd	r18, Y+19	; 0x13
    2220:	3c 89       	ldd	r19, Y+20	; 0x14
    2222:	82 0f       	add	r24, r18
    2224:	93 1f       	adc	r25, r19
    2226:	02 96       	adiw	r24, 0x02	; 2
    2228:	9c 87       	std	Y+12, r25	; 0x0c
    222a:	8b 87       	std	Y+11, r24	; 0x0b
    222c:	1a 86       	std	Y+10, r1	; 0x0a
    222e:	9a 8d       	ldd	r25, Y+26	; 0x1a
    2230:	8a 89       	ldd	r24, Y+18	; 0x12
    2232:	98 17       	cp	r25, r24
    2234:	11 f0       	breq	.+4      	; 0x223a <__mulsf3+0x142>
    2236:	81 e0       	ldi	r24, 0x01	; 1
    2238:	8a 87       	std	Y+10, r24	; 0x0a
    223a:	d7 fe       	sbrs	r13, 7
    223c:	17 c0       	rjmp	.+46     	; 0x226c <__mulsf3+0x174>
    223e:	8b 85       	ldd	r24, Y+11	; 0x0b
    2240:	9c 85       	ldd	r25, Y+12	; 0x0c
    2242:	a0 fe       	sbrs	r10, 0
    2244:	0c c0       	rjmp	.+24     	; 0x225e <__mulsf3+0x166>
    2246:	56 94       	lsr	r5
    2248:	47 94       	ror	r4
    224a:	37 94       	ror	r3
    224c:	27 94       	ror	r2
    224e:	20 e0       	ldi	r18, 0x00	; 0
    2250:	30 e0       	ldi	r19, 0x00	; 0
    2252:	40 e0       	ldi	r20, 0x00	; 0
    2254:	50 e8       	ldi	r21, 0x80	; 128
    2256:	22 2a       	or	r2, r18
    2258:	33 2a       	or	r3, r19
    225a:	44 2a       	or	r4, r20
    225c:	55 2a       	or	r5, r21
    225e:	d6 94       	lsr	r13
    2260:	c7 94       	ror	r12
    2262:	b7 94       	ror	r11
    2264:	a7 94       	ror	r10
    2266:	01 96       	adiw	r24, 0x01	; 1
    2268:	9c 87       	std	Y+12, r25	; 0x0c
    226a:	8b 87       	std	Y+11, r24	; 0x0b
    226c:	30 e0       	ldi	r19, 0x00	; 0
    226e:	a3 16       	cp	r10, r19
    2270:	30 e0       	ldi	r19, 0x00	; 0
    2272:	b3 06       	cpc	r11, r19
    2274:	30 e0       	ldi	r19, 0x00	; 0
    2276:	c3 06       	cpc	r12, r19
    2278:	30 e4       	ldi	r19, 0x40	; 64
    227a:	d3 06       	cpc	r13, r19
    227c:	18 f5       	brcc	.+70     	; 0x22c4 <__mulsf3+0x1cc>
    227e:	8b 85       	ldd	r24, Y+11	; 0x0b
    2280:	9c 85       	ldd	r25, Y+12	; 0x0c
    2282:	0e c0       	rjmp	.+28     	; 0x22a0 <__mulsf3+0x1a8>
    2284:	22 0c       	add	r2, r2
    2286:	33 1c       	adc	r3, r3
    2288:	44 1c       	adc	r4, r4
    228a:	55 1c       	adc	r5, r5
    228c:	01 97       	sbiw	r24, 0x01	; 1
    228e:	20 e0       	ldi	r18, 0x00	; 0
    2290:	a2 16       	cp	r10, r18
    2292:	20 e0       	ldi	r18, 0x00	; 0
    2294:	b2 06       	cpc	r11, r18
    2296:	20 e0       	ldi	r18, 0x00	; 0
    2298:	c2 06       	cpc	r12, r18
    229a:	20 e4       	ldi	r18, 0x40	; 64
    229c:	d2 06       	cpc	r13, r18
    229e:	80 f4       	brcc	.+32     	; 0x22c0 <__mulsf3+0x1c8>
    22a0:	aa 0c       	add	r10, r10
    22a2:	bb 1c       	adc	r11, r11
    22a4:	cc 1c       	adc	r12, r12
    22a6:	dd 1c       	adc	r13, r13
    22a8:	57 fe       	sbrs	r5, 7
    22aa:	ec cf       	rjmp	.-40     	; 0x2284 <__mulsf3+0x18c>
    22ac:	31 e0       	ldi	r19, 0x01	; 1
    22ae:	63 2e       	mov	r6, r19
    22b0:	71 2c       	mov	r7, r1
    22b2:	81 2c       	mov	r8, r1
    22b4:	91 2c       	mov	r9, r1
    22b6:	a6 28       	or	r10, r6
    22b8:	b7 28       	or	r11, r7
    22ba:	c8 28       	or	r12, r8
    22bc:	d9 28       	or	r13, r9
    22be:	e2 cf       	rjmp	.-60     	; 0x2284 <__mulsf3+0x18c>
    22c0:	9c 87       	std	Y+12, r25	; 0x0c
    22c2:	8b 87       	std	Y+11, r24	; 0x0b
    22c4:	d6 01       	movw	r26, r12
    22c6:	c5 01       	movw	r24, r10
    22c8:	8f 77       	andi	r24, 0x7F	; 127
    22ca:	90 70       	andi	r25, 0x00	; 0
    22cc:	a0 70       	andi	r26, 0x00	; 0
    22ce:	b0 70       	andi	r27, 0x00	; 0
    22d0:	80 34       	cpi	r24, 0x40	; 64
    22d2:	91 05       	cpc	r25, r1
    22d4:	a1 05       	cpc	r26, r1
    22d6:	b1 05       	cpc	r27, r1
    22d8:	51 f0       	breq	.+20     	; 0x22ee <__mulsf3+0x1f6>
    22da:	ad 86       	std	Y+13, r10	; 0x0d
    22dc:	be 86       	std	Y+14, r11	; 0x0e
    22de:	cf 86       	std	Y+15, r12	; 0x0f
    22e0:	d8 8a       	std	Y+16, r13	; 0x10
    22e2:	83 e0       	ldi	r24, 0x03	; 3
    22e4:	89 87       	std	Y+9, r24	; 0x09
    22e6:	be 01       	movw	r22, r28
    22e8:	67 5f       	subi	r22, 0xF7	; 247
    22ea:	7f 4f       	sbci	r23, 0xFF	; 255
    22ec:	1c c0       	rjmp	.+56     	; 0x2326 <__mulsf3+0x22e>
    22ee:	a7 fc       	sbrc	r10, 7
    22f0:	f4 cf       	rjmp	.-24     	; 0x22da <__mulsf3+0x1e2>
    22f2:	21 14       	cp	r2, r1
    22f4:	31 04       	cpc	r3, r1
    22f6:	41 04       	cpc	r4, r1
    22f8:	51 04       	cpc	r5, r1
    22fa:	79 f3       	breq	.-34     	; 0x22da <__mulsf3+0x1e2>
    22fc:	80 e4       	ldi	r24, 0x40	; 64
    22fe:	90 e0       	ldi	r25, 0x00	; 0
    2300:	a0 e0       	ldi	r26, 0x00	; 0
    2302:	b0 e0       	ldi	r27, 0x00	; 0
    2304:	a8 0e       	add	r10, r24
    2306:	b9 1e       	adc	r11, r25
    2308:	ca 1e       	adc	r12, r26
    230a:	db 1e       	adc	r13, r27
    230c:	80 e8       	ldi	r24, 0x80	; 128
    230e:	68 2e       	mov	r6, r24
    2310:	8f ef       	ldi	r24, 0xFF	; 255
    2312:	78 2e       	mov	r7, r24
    2314:	8f ef       	ldi	r24, 0xFF	; 255
    2316:	88 2e       	mov	r8, r24
    2318:	8f ef       	ldi	r24, 0xFF	; 255
    231a:	98 2e       	mov	r9, r24
    231c:	a6 20       	and	r10, r6
    231e:	b7 20       	and	r11, r7
    2320:	c8 20       	and	r12, r8
    2322:	d9 20       	and	r13, r9
    2324:	da cf       	rjmp	.-76     	; 0x22da <__mulsf3+0x1e2>
    2326:	cb 01       	movw	r24, r22
    2328:	0e 94 0d 13 	call	0x261a	; 0x261a <__pack_f>
    232c:	e2 e1       	ldi	r30, 0x12	; 18
    232e:	a0 96       	adiw	r28, 0x20	; 32
    2330:	0c 94 32 15 	jmp	0x2a64	; 0x2a64 <__epilogue_restores__>

00002334 <__divsf3>:
    2334:	a8 e1       	ldi	r26, 0x18	; 24
    2336:	b0 e0       	ldi	r27, 0x00	; 0
    2338:	e0 ea       	ldi	r30, 0xA0	; 160
    233a:	f1 e1       	ldi	r31, 0x11	; 17
    233c:	0c 94 1c 15 	jmp	0x2a38	; 0x2a38 <__prologue_saves__+0xc>
    2340:	69 83       	std	Y+1, r22	; 0x01
    2342:	7a 83       	std	Y+2, r23	; 0x02
    2344:	8b 83       	std	Y+3, r24	; 0x03
    2346:	9c 83       	std	Y+4, r25	; 0x04
    2348:	2d 83       	std	Y+5, r18	; 0x05
    234a:	3e 83       	std	Y+6, r19	; 0x06
    234c:	4f 83       	std	Y+7, r20	; 0x07
    234e:	58 87       	std	Y+8, r21	; 0x08
    2350:	b1 e1       	ldi	r27, 0x11	; 17
    2352:	8b 2e       	mov	r8, r27
    2354:	91 2c       	mov	r9, r1
    2356:	8c 0e       	add	r8, r28
    2358:	9d 1e       	adc	r9, r29
    235a:	b4 01       	movw	r22, r8
    235c:	ce 01       	movw	r24, r28
    235e:	01 96       	adiw	r24, 0x01	; 1
    2360:	0e 94 2f 14 	call	0x285e	; 0x285e <__unpack_f>
    2364:	8e 01       	movw	r16, r28
    2366:	07 5f       	subi	r16, 0xF7	; 247
    2368:	1f 4f       	sbci	r17, 0xFF	; 255
    236a:	b8 01       	movw	r22, r16
    236c:	ce 01       	movw	r24, r28
    236e:	05 96       	adiw	r24, 0x05	; 5
    2370:	0e 94 2f 14 	call	0x285e	; 0x285e <__unpack_f>
    2374:	29 89       	ldd	r18, Y+17	; 0x11
    2376:	22 30       	cpi	r18, 0x02	; 2
    2378:	08 f4       	brcc	.+2      	; 0x237c <__divsf3+0x48>
    237a:	6a c0       	rjmp	.+212    	; 0x2450 <__divsf3+0x11c>
    237c:	39 85       	ldd	r19, Y+9	; 0x09
    237e:	32 30       	cpi	r19, 0x02	; 2
    2380:	08 f4       	brcc	.+2      	; 0x2384 <__divsf3+0x50>
    2382:	68 c0       	rjmp	.+208    	; 0x2454 <__divsf3+0x120>
    2384:	8a 89       	ldd	r24, Y+18	; 0x12
    2386:	9a 85       	ldd	r25, Y+10	; 0x0a
    2388:	89 27       	eor	r24, r25
    238a:	8a 8b       	std	Y+18, r24	; 0x12
    238c:	24 30       	cpi	r18, 0x04	; 4
    238e:	09 f4       	brne	.+2      	; 0x2392 <__divsf3+0x5e>
    2390:	63 c0       	rjmp	.+198    	; 0x2458 <__divsf3+0x124>
    2392:	22 30       	cpi	r18, 0x02	; 2
    2394:	09 f4       	brne	.+2      	; 0x2398 <__divsf3+0x64>
    2396:	60 c0       	rjmp	.+192    	; 0x2458 <__divsf3+0x124>
    2398:	34 30       	cpi	r19, 0x04	; 4
    239a:	41 f4       	brne	.+16     	; 0x23ac <__divsf3+0x78>
    239c:	1d 8a       	std	Y+21, r1	; 0x15
    239e:	1e 8a       	std	Y+22, r1	; 0x16
    23a0:	1f 8a       	std	Y+23, r1	; 0x17
    23a2:	18 8e       	std	Y+24, r1	; 0x18
    23a4:	1c 8a       	std	Y+20, r1	; 0x14
    23a6:	1b 8a       	std	Y+19, r1	; 0x13
    23a8:	b4 01       	movw	r22, r8
    23aa:	77 c0       	rjmp	.+238    	; 0x249a <__divsf3+0x166>
    23ac:	32 30       	cpi	r19, 0x02	; 2
    23ae:	09 f4       	brne	.+2      	; 0x23b2 <__divsf3+0x7e>
    23b0:	58 c0       	rjmp	.+176    	; 0x2462 <__divsf3+0x12e>
    23b2:	6b 89       	ldd	r22, Y+19	; 0x13
    23b4:	7c 89       	ldd	r23, Y+20	; 0x14
    23b6:	8b 85       	ldd	r24, Y+11	; 0x0b
    23b8:	9c 85       	ldd	r25, Y+12	; 0x0c
    23ba:	68 1b       	sub	r22, r24
    23bc:	79 0b       	sbc	r23, r25
    23be:	7c 8b       	std	Y+20, r23	; 0x14
    23c0:	6b 8b       	std	Y+19, r22	; 0x13
    23c2:	2d 89       	ldd	r18, Y+21	; 0x15
    23c4:	3e 89       	ldd	r19, Y+22	; 0x16
    23c6:	4f 89       	ldd	r20, Y+23	; 0x17
    23c8:	58 8d       	ldd	r21, Y+24	; 0x18
    23ca:	ed 84       	ldd	r14, Y+13	; 0x0d
    23cc:	fe 84       	ldd	r15, Y+14	; 0x0e
    23ce:	0f 85       	ldd	r16, Y+15	; 0x0f
    23d0:	18 89       	ldd	r17, Y+16	; 0x10
    23d2:	2e 15       	cp	r18, r14
    23d4:	3f 05       	cpc	r19, r15
    23d6:	40 07       	cpc	r20, r16
    23d8:	51 07       	cpc	r21, r17
    23da:	40 f4       	brcc	.+16     	; 0x23ec <__divsf3+0xb8>
    23dc:	22 0f       	add	r18, r18
    23de:	33 1f       	adc	r19, r19
    23e0:	44 1f       	adc	r20, r20
    23e2:	55 1f       	adc	r21, r21
    23e4:	61 50       	subi	r22, 0x01	; 1
    23e6:	70 40       	sbci	r23, 0x00	; 0
    23e8:	7c 8b       	std	Y+20, r23	; 0x14
    23ea:	6b 8b       	std	Y+19, r22	; 0x13
    23ec:	80 e0       	ldi	r24, 0x00	; 0
    23ee:	90 e0       	ldi	r25, 0x00	; 0
    23f0:	a0 e0       	ldi	r26, 0x00	; 0
    23f2:	b0 e4       	ldi	r27, 0x40	; 64
    23f4:	aa 24       	eor	r10, r10
    23f6:	bb 24       	eor	r11, r11
    23f8:	65 01       	movw	r12, r10
    23fa:	60 e0       	ldi	r22, 0x00	; 0
    23fc:	70 e0       	ldi	r23, 0x00	; 0
    23fe:	2e 15       	cp	r18, r14
    2400:	3f 05       	cpc	r19, r15
    2402:	40 07       	cpc	r20, r16
    2404:	51 07       	cpc	r21, r17
    2406:	40 f0       	brcs	.+16     	; 0x2418 <__divsf3+0xe4>
    2408:	a8 2a       	or	r10, r24
    240a:	b9 2a       	or	r11, r25
    240c:	ca 2a       	or	r12, r26
    240e:	db 2a       	or	r13, r27
    2410:	2e 19       	sub	r18, r14
    2412:	3f 09       	sbc	r19, r15
    2414:	40 0b       	sbc	r20, r16
    2416:	51 0b       	sbc	r21, r17
    2418:	b6 95       	lsr	r27
    241a:	a7 95       	ror	r26
    241c:	97 95       	ror	r25
    241e:	87 95       	ror	r24
    2420:	22 0f       	add	r18, r18
    2422:	33 1f       	adc	r19, r19
    2424:	44 1f       	adc	r20, r20
    2426:	55 1f       	adc	r21, r21
    2428:	6f 5f       	subi	r22, 0xFF	; 255
    242a:	7f 4f       	sbci	r23, 0xFF	; 255
    242c:	6f 31       	cpi	r22, 0x1F	; 31
    242e:	71 05       	cpc	r23, r1
    2430:	31 f7       	brne	.-52     	; 0x23fe <__divsf3+0xca>
    2432:	d6 01       	movw	r26, r12
    2434:	c5 01       	movw	r24, r10
    2436:	8f 77       	andi	r24, 0x7F	; 127
    2438:	90 70       	andi	r25, 0x00	; 0
    243a:	a0 70       	andi	r26, 0x00	; 0
    243c:	b0 70       	andi	r27, 0x00	; 0
    243e:	80 34       	cpi	r24, 0x40	; 64
    2440:	91 05       	cpc	r25, r1
    2442:	a1 05       	cpc	r26, r1
    2444:	b1 05       	cpc	r27, r1
    2446:	89 f0       	breq	.+34     	; 0x246a <__divsf3+0x136>
    2448:	ad 8a       	std	Y+21, r10	; 0x15
    244a:	be 8a       	std	Y+22, r11	; 0x16
    244c:	cf 8a       	std	Y+23, r12	; 0x17
    244e:	d8 8e       	std	Y+24, r13	; 0x18
    2450:	b4 01       	movw	r22, r8
    2452:	23 c0       	rjmp	.+70     	; 0x249a <__divsf3+0x166>
    2454:	b8 01       	movw	r22, r16
    2456:	21 c0       	rjmp	.+66     	; 0x249a <__divsf3+0x166>
    2458:	32 17       	cp	r19, r18
    245a:	d1 f7       	brne	.-12     	; 0x2450 <__divsf3+0x11c>
    245c:	60 e0       	ldi	r22, 0x00	; 0
    245e:	71 e0       	ldi	r23, 0x01	; 1
    2460:	1c c0       	rjmp	.+56     	; 0x249a <__divsf3+0x166>
    2462:	84 e0       	ldi	r24, 0x04	; 4
    2464:	89 8b       	std	Y+17, r24	; 0x11
    2466:	b4 01       	movw	r22, r8
    2468:	18 c0       	rjmp	.+48     	; 0x249a <__divsf3+0x166>
    246a:	a7 fc       	sbrc	r10, 7
    246c:	ed cf       	rjmp	.-38     	; 0x2448 <__divsf3+0x114>
    246e:	21 15       	cp	r18, r1
    2470:	31 05       	cpc	r19, r1
    2472:	41 05       	cpc	r20, r1
    2474:	51 05       	cpc	r21, r1
    2476:	41 f3       	breq	.-48     	; 0x2448 <__divsf3+0x114>
    2478:	80 e4       	ldi	r24, 0x40	; 64
    247a:	90 e0       	ldi	r25, 0x00	; 0
    247c:	a0 e0       	ldi	r26, 0x00	; 0
    247e:	b0 e0       	ldi	r27, 0x00	; 0
    2480:	a8 0e       	add	r10, r24
    2482:	b9 1e       	adc	r11, r25
    2484:	ca 1e       	adc	r12, r26
    2486:	db 1e       	adc	r13, r27
    2488:	80 e8       	ldi	r24, 0x80	; 128
    248a:	9f ef       	ldi	r25, 0xFF	; 255
    248c:	af ef       	ldi	r26, 0xFF	; 255
    248e:	bf ef       	ldi	r27, 0xFF	; 255
    2490:	a8 22       	and	r10, r24
    2492:	b9 22       	and	r11, r25
    2494:	ca 22       	and	r12, r26
    2496:	db 22       	and	r13, r27
    2498:	d7 cf       	rjmp	.-82     	; 0x2448 <__divsf3+0x114>
    249a:	cb 01       	movw	r24, r22
    249c:	0e 94 0d 13 	call	0x261a	; 0x261a <__pack_f>
    24a0:	ec e0       	ldi	r30, 0x0C	; 12
    24a2:	68 96       	adiw	r28, 0x18	; 24
    24a4:	0c 94 38 15 	jmp	0x2a70	; 0x2a70 <__epilogue_restores__+0xc>

000024a8 <__floatsisf>:
    24a8:	a8 e0       	ldi	r26, 0x08	; 8
    24aa:	b0 e0       	ldi	r27, 0x00	; 0
    24ac:	ea e5       	ldi	r30, 0x5A	; 90
    24ae:	f2 e1       	ldi	r31, 0x12	; 18
    24b0:	0c 94 25 15 	jmp	0x2a4a	; 0x2a4a <__prologue_saves__+0x1e>
    24b4:	9b 01       	movw	r18, r22
    24b6:	ac 01       	movw	r20, r24
    24b8:	83 e0       	ldi	r24, 0x03	; 3
    24ba:	89 83       	std	Y+1, r24	; 0x01
    24bc:	1a 82       	std	Y+2, r1	; 0x02
    24be:	57 fd       	sbrc	r21, 7
    24c0:	51 c0       	rjmp	.+162    	; 0x2564 <__floatsisf+0xbc>
    24c2:	21 15       	cp	r18, r1
    24c4:	31 05       	cpc	r19, r1
    24c6:	41 05       	cpc	r20, r1
    24c8:	51 05       	cpc	r21, r1
    24ca:	39 f4       	brne	.+14     	; 0x24da <__floatsisf+0x32>
    24cc:	82 e0       	ldi	r24, 0x02	; 2
    24ce:	89 83       	std	Y+1, r24	; 0x01
    24d0:	ce 01       	movw	r24, r28
    24d2:	01 96       	adiw	r24, 0x01	; 1
    24d4:	0e 94 0d 13 	call	0x261a	; 0x261a <__pack_f>
    24d8:	4c c0       	rjmp	.+152    	; 0x2572 <__floatsisf+0xca>
    24da:	ee e1       	ldi	r30, 0x1E	; 30
    24dc:	f0 e0       	ldi	r31, 0x00	; 0
    24de:	fc 83       	std	Y+4, r31	; 0x04
    24e0:	eb 83       	std	Y+3, r30	; 0x03
    24e2:	8a 81       	ldd	r24, Y+2	; 0x02
    24e4:	88 23       	and	r24, r24
    24e6:	c9 f1       	breq	.+114    	; 0x255a <__floatsisf+0xb2>
    24e8:	20 30       	cpi	r18, 0x00	; 0
    24ea:	10 e0       	ldi	r17, 0x00	; 0
    24ec:	31 07       	cpc	r19, r17
    24ee:	10 e0       	ldi	r17, 0x00	; 0
    24f0:	41 07       	cpc	r20, r17
    24f2:	10 e8       	ldi	r17, 0x80	; 128
    24f4:	51 07       	cpc	r21, r17
    24f6:	c9 f1       	breq	.+114    	; 0x256a <__floatsisf+0xc2>
    24f8:	88 27       	eor	r24, r24
    24fa:	99 27       	eor	r25, r25
    24fc:	dc 01       	movw	r26, r24
    24fe:	82 1b       	sub	r24, r18
    2500:	93 0b       	sbc	r25, r19
    2502:	a4 0b       	sbc	r26, r20
    2504:	b5 0b       	sbc	r27, r21
    2506:	8d 83       	std	Y+5, r24	; 0x05
    2508:	9e 83       	std	Y+6, r25	; 0x06
    250a:	af 83       	std	Y+7, r26	; 0x07
    250c:	b8 87       	std	Y+8, r27	; 0x08
    250e:	2d 81       	ldd	r18, Y+5	; 0x05
    2510:	3e 81       	ldd	r19, Y+6	; 0x06
    2512:	4f 81       	ldd	r20, Y+7	; 0x07
    2514:	58 85       	ldd	r21, Y+8	; 0x08
    2516:	20 30       	cpi	r18, 0x00	; 0
    2518:	80 e0       	ldi	r24, 0x00	; 0
    251a:	38 07       	cpc	r19, r24
    251c:	80 e0       	ldi	r24, 0x00	; 0
    251e:	48 07       	cpc	r20, r24
    2520:	80 e4       	ldi	r24, 0x40	; 64
    2522:	58 07       	cpc	r21, r24
    2524:	a8 f6       	brcc	.-86     	; 0x24d0 <__floatsisf+0x28>
    2526:	eb 81       	ldd	r30, Y+3	; 0x03
    2528:	fc 81       	ldd	r31, Y+4	; 0x04
    252a:	da 01       	movw	r26, r20
    252c:	c9 01       	movw	r24, r18
    252e:	88 0f       	add	r24, r24
    2530:	99 1f       	adc	r25, r25
    2532:	aa 1f       	adc	r26, r26
    2534:	bb 1f       	adc	r27, r27
    2536:	31 97       	sbiw	r30, 0x01	; 1
    2538:	9c 01       	movw	r18, r24
    253a:	ad 01       	movw	r20, r26
    253c:	80 30       	cpi	r24, 0x00	; 0
    253e:	10 e0       	ldi	r17, 0x00	; 0
    2540:	91 07       	cpc	r25, r17
    2542:	10 e0       	ldi	r17, 0x00	; 0
    2544:	a1 07       	cpc	r26, r17
    2546:	10 e4       	ldi	r17, 0x40	; 64
    2548:	b1 07       	cpc	r27, r17
    254a:	78 f3       	brcs	.-34     	; 0x252a <__floatsisf+0x82>
    254c:	fc 83       	std	Y+4, r31	; 0x04
    254e:	eb 83       	std	Y+3, r30	; 0x03
    2550:	8d 83       	std	Y+5, r24	; 0x05
    2552:	9e 83       	std	Y+6, r25	; 0x06
    2554:	af 83       	std	Y+7, r26	; 0x07
    2556:	b8 87       	std	Y+8, r27	; 0x08
    2558:	bb cf       	rjmp	.-138    	; 0x24d0 <__floatsisf+0x28>
    255a:	2d 83       	std	Y+5, r18	; 0x05
    255c:	3e 83       	std	Y+6, r19	; 0x06
    255e:	4f 83       	std	Y+7, r20	; 0x07
    2560:	58 87       	std	Y+8, r21	; 0x08
    2562:	d5 cf       	rjmp	.-86     	; 0x250e <__floatsisf+0x66>
    2564:	81 e0       	ldi	r24, 0x01	; 1
    2566:	8a 83       	std	Y+2, r24	; 0x02
    2568:	ac cf       	rjmp	.-168    	; 0x24c2 <__floatsisf+0x1a>
    256a:	60 e0       	ldi	r22, 0x00	; 0
    256c:	70 e0       	ldi	r23, 0x00	; 0
    256e:	80 e0       	ldi	r24, 0x00	; 0
    2570:	9f ec       	ldi	r25, 0xCF	; 207
    2572:	e3 e0       	ldi	r30, 0x03	; 3
    2574:	28 96       	adiw	r28, 0x08	; 8
    2576:	0c 94 41 15 	jmp	0x2a82	; 0x2a82 <__epilogue_restores__+0x1e>

0000257a <__fixsfsi>:
    257a:	ac e0       	ldi	r26, 0x0C	; 12
    257c:	b0 e0       	ldi	r27, 0x00	; 0
    257e:	e3 ec       	ldi	r30, 0xC3	; 195
    2580:	f2 e1       	ldi	r31, 0x12	; 18
    2582:	0c 94 26 15 	jmp	0x2a4c	; 0x2a4c <__prologue_saves__+0x20>
    2586:	69 83       	std	Y+1, r22	; 0x01
    2588:	7a 83       	std	Y+2, r23	; 0x02
    258a:	8b 83       	std	Y+3, r24	; 0x03
    258c:	9c 83       	std	Y+4, r25	; 0x04
    258e:	be 01       	movw	r22, r28
    2590:	6b 5f       	subi	r22, 0xFB	; 251
    2592:	7f 4f       	sbci	r23, 0xFF	; 255
    2594:	ce 01       	movw	r24, r28
    2596:	01 96       	adiw	r24, 0x01	; 1
    2598:	0e 94 2f 14 	call	0x285e	; 0x285e <__unpack_f>
    259c:	8d 81       	ldd	r24, Y+5	; 0x05
    259e:	82 30       	cpi	r24, 0x02	; 2
    25a0:	61 f0       	breq	.+24     	; 0x25ba <__fixsfsi+0x40>
    25a2:	82 30       	cpi	r24, 0x02	; 2
    25a4:	50 f0       	brcs	.+20     	; 0x25ba <__fixsfsi+0x40>
    25a6:	84 30       	cpi	r24, 0x04	; 4
    25a8:	69 f4       	brne	.+26     	; 0x25c4 <__fixsfsi+0x4a>
    25aa:	8e 81       	ldd	r24, Y+6	; 0x06
    25ac:	88 23       	and	r24, r24
    25ae:	59 f5       	brne	.+86     	; 0x2606 <__fixsfsi+0x8c>
    25b0:	2f ef       	ldi	r18, 0xFF	; 255
    25b2:	3f ef       	ldi	r19, 0xFF	; 255
    25b4:	4f ef       	ldi	r20, 0xFF	; 255
    25b6:	5f e7       	ldi	r21, 0x7F	; 127
    25b8:	2a c0       	rjmp	.+84     	; 0x260e <__fixsfsi+0x94>
    25ba:	20 e0       	ldi	r18, 0x00	; 0
    25bc:	30 e0       	ldi	r19, 0x00	; 0
    25be:	40 e0       	ldi	r20, 0x00	; 0
    25c0:	50 e0       	ldi	r21, 0x00	; 0
    25c2:	25 c0       	rjmp	.+74     	; 0x260e <__fixsfsi+0x94>
    25c4:	2f 81       	ldd	r18, Y+7	; 0x07
    25c6:	38 85       	ldd	r19, Y+8	; 0x08
    25c8:	37 fd       	sbrc	r19, 7
    25ca:	f7 cf       	rjmp	.-18     	; 0x25ba <__fixsfsi+0x40>
    25cc:	2f 31       	cpi	r18, 0x1F	; 31
    25ce:	31 05       	cpc	r19, r1
    25d0:	64 f7       	brge	.-40     	; 0x25aa <__fixsfsi+0x30>
    25d2:	8e e1       	ldi	r24, 0x1E	; 30
    25d4:	90 e0       	ldi	r25, 0x00	; 0
    25d6:	82 1b       	sub	r24, r18
    25d8:	93 0b       	sbc	r25, r19
    25da:	29 85       	ldd	r18, Y+9	; 0x09
    25dc:	3a 85       	ldd	r19, Y+10	; 0x0a
    25de:	4b 85       	ldd	r20, Y+11	; 0x0b
    25e0:	5c 85       	ldd	r21, Y+12	; 0x0c
    25e2:	04 c0       	rjmp	.+8      	; 0x25ec <__fixsfsi+0x72>
    25e4:	56 95       	lsr	r21
    25e6:	47 95       	ror	r20
    25e8:	37 95       	ror	r19
    25ea:	27 95       	ror	r18
    25ec:	8a 95       	dec	r24
    25ee:	d2 f7       	brpl	.-12     	; 0x25e4 <__fixsfsi+0x6a>
    25f0:	8e 81       	ldd	r24, Y+6	; 0x06
    25f2:	88 23       	and	r24, r24
    25f4:	61 f0       	breq	.+24     	; 0x260e <__fixsfsi+0x94>
    25f6:	50 95       	com	r21
    25f8:	40 95       	com	r20
    25fa:	30 95       	com	r19
    25fc:	21 95       	neg	r18
    25fe:	3f 4f       	sbci	r19, 0xFF	; 255
    2600:	4f 4f       	sbci	r20, 0xFF	; 255
    2602:	5f 4f       	sbci	r21, 0xFF	; 255
    2604:	04 c0       	rjmp	.+8      	; 0x260e <__fixsfsi+0x94>
    2606:	20 e0       	ldi	r18, 0x00	; 0
    2608:	30 e0       	ldi	r19, 0x00	; 0
    260a:	40 e0       	ldi	r20, 0x00	; 0
    260c:	50 e8       	ldi	r21, 0x80	; 128
    260e:	ca 01       	movw	r24, r20
    2610:	b9 01       	movw	r22, r18
    2612:	e2 e0       	ldi	r30, 0x02	; 2
    2614:	2c 96       	adiw	r28, 0x0c	; 12
    2616:	0c 94 42 15 	jmp	0x2a84	; 0x2a84 <__epilogue_restores__+0x20>

0000261a <__pack_f>:
    261a:	4f 92       	push	r4
    261c:	5f 92       	push	r5
    261e:	6f 92       	push	r6
    2620:	7f 92       	push	r7
    2622:	8f 92       	push	r8
    2624:	9f 92       	push	r9
    2626:	af 92       	push	r10
    2628:	bf 92       	push	r11
    262a:	df 92       	push	r13
    262c:	ef 92       	push	r14
    262e:	ff 92       	push	r15
    2630:	0f 93       	push	r16
    2632:	1f 93       	push	r17
    2634:	20 e0       	ldi	r18, 0x00	; 0
    2636:	30 e0       	ldi	r19, 0x00	; 0
    2638:	40 e0       	ldi	r20, 0x00	; 0
    263a:	50 e0       	ldi	r21, 0x00	; 0
    263c:	fc 01       	movw	r30, r24
    263e:	e4 80       	ldd	r14, Z+4	; 0x04
    2640:	f5 80       	ldd	r15, Z+5	; 0x05
    2642:	06 81       	ldd	r16, Z+6	; 0x06
    2644:	17 81       	ldd	r17, Z+7	; 0x07
    2646:	d1 80       	ldd	r13, Z+1	; 0x01
    2648:	80 81       	ld	r24, Z
    264a:	82 30       	cpi	r24, 0x02	; 2
    264c:	38 f4       	brcc	.+14     	; 0x265c <__pack_f+0x42>
    264e:	d8 01       	movw	r26, r16
    2650:	c7 01       	movw	r24, r14
    2652:	a0 61       	ori	r26, 0x10	; 16
    2654:	af 77       	andi	r26, 0x7F	; 127
    2656:	b0 70       	andi	r27, 0x00	; 0
    2658:	6f ef       	ldi	r22, 0xFF	; 255
    265a:	d9 c0       	rjmp	.+434    	; 0x280e <__pack_f+0x1f4>
    265c:	84 30       	cpi	r24, 0x04	; 4
    265e:	09 f4       	brne	.+2      	; 0x2662 <__pack_f+0x48>
    2660:	6e c0       	rjmp	.+220    	; 0x273e <__pack_f+0x124>
    2662:	82 30       	cpi	r24, 0x02	; 2
    2664:	09 f4       	brne	.+2      	; 0x2668 <__pack_f+0x4e>
    2666:	71 c0       	rjmp	.+226    	; 0x274a <__pack_f+0x130>
    2668:	e1 14       	cp	r14, r1
    266a:	f1 04       	cpc	r15, r1
    266c:	01 05       	cpc	r16, r1
    266e:	11 05       	cpc	r17, r1
    2670:	09 f4       	brne	.+2      	; 0x2674 <__pack_f+0x5a>
    2672:	6b c0       	rjmp	.+214    	; 0x274a <__pack_f+0x130>
    2674:	82 81       	ldd	r24, Z+2	; 0x02
    2676:	93 81       	ldd	r25, Z+3	; 0x03
    2678:	6f ef       	ldi	r22, 0xFF	; 255
    267a:	82 38       	cpi	r24, 0x82	; 130
    267c:	96 07       	cpc	r25, r22
    267e:	0c f0       	brlt	.+2      	; 0x2682 <__pack_f+0x68>
    2680:	6a c0       	rjmp	.+212    	; 0x2756 <__pack_f+0x13c>
    2682:	62 e8       	ldi	r22, 0x82	; 130
    2684:	7f ef       	ldi	r23, 0xFF	; 255
    2686:	68 1b       	sub	r22, r24
    2688:	79 0b       	sbc	r23, r25
    268a:	6a 31       	cpi	r22, 0x1A	; 26
    268c:	71 05       	cpc	r23, r1
    268e:	0c f0       	brlt	.+2      	; 0x2692 <__pack_f+0x78>
    2690:	80 c0       	rjmp	.+256    	; 0x2792 <__pack_f+0x178>
    2692:	47 01       	movw	r8, r14
    2694:	58 01       	movw	r10, r16
    2696:	06 2e       	mov	r0, r22
    2698:	04 c0       	rjmp	.+8      	; 0x26a2 <__pack_f+0x88>
    269a:	b6 94       	lsr	r11
    269c:	a7 94       	ror	r10
    269e:	97 94       	ror	r9
    26a0:	87 94       	ror	r8
    26a2:	0a 94       	dec	r0
    26a4:	d2 f7       	brpl	.-12     	; 0x269a <__pack_f+0x80>
    26a6:	44 24       	eor	r4, r4
    26a8:	55 24       	eor	r5, r5
    26aa:	32 01       	movw	r6, r4
    26ac:	81 e0       	ldi	r24, 0x01	; 1
    26ae:	90 e0       	ldi	r25, 0x00	; 0
    26b0:	a0 e0       	ldi	r26, 0x00	; 0
    26b2:	b0 e0       	ldi	r27, 0x00	; 0
    26b4:	04 c0       	rjmp	.+8      	; 0x26be <__pack_f+0xa4>
    26b6:	88 0f       	add	r24, r24
    26b8:	99 1f       	adc	r25, r25
    26ba:	aa 1f       	adc	r26, r26
    26bc:	bb 1f       	adc	r27, r27
    26be:	6a 95       	dec	r22
    26c0:	d2 f7       	brpl	.-12     	; 0x26b6 <__pack_f+0x9c>
    26c2:	01 97       	sbiw	r24, 0x01	; 1
    26c4:	a1 09       	sbc	r26, r1
    26c6:	b1 09       	sbc	r27, r1
    26c8:	e8 22       	and	r14, r24
    26ca:	f9 22       	and	r15, r25
    26cc:	0a 23       	and	r16, r26
    26ce:	1b 23       	and	r17, r27
    26d0:	e1 14       	cp	r14, r1
    26d2:	f1 04       	cpc	r15, r1
    26d4:	01 05       	cpc	r16, r1
    26d6:	11 05       	cpc	r17, r1
    26d8:	29 f0       	breq	.+10     	; 0x26e4 <__pack_f+0xca>
    26da:	61 e0       	ldi	r22, 0x01	; 1
    26dc:	46 2e       	mov	r4, r22
    26de:	51 2c       	mov	r5, r1
    26e0:	61 2c       	mov	r6, r1
    26e2:	71 2c       	mov	r7, r1
    26e4:	85 01       	movw	r16, r10
    26e6:	74 01       	movw	r14, r8
    26e8:	e4 28       	or	r14, r4
    26ea:	f5 28       	or	r15, r5
    26ec:	06 29       	or	r16, r6
    26ee:	17 29       	or	r17, r7
    26f0:	d8 01       	movw	r26, r16
    26f2:	c7 01       	movw	r24, r14
    26f4:	8f 77       	andi	r24, 0x7F	; 127
    26f6:	90 70       	andi	r25, 0x00	; 0
    26f8:	a0 70       	andi	r26, 0x00	; 0
    26fa:	b0 70       	andi	r27, 0x00	; 0
    26fc:	80 34       	cpi	r24, 0x40	; 64
    26fe:	91 05       	cpc	r25, r1
    2700:	a1 05       	cpc	r26, r1
    2702:	b1 05       	cpc	r27, r1
    2704:	09 f4       	brne	.+2      	; 0x2708 <__pack_f+0xee>
    2706:	57 c0       	rjmp	.+174    	; 0x27b6 <__pack_f+0x19c>
    2708:	d8 01       	movw	r26, r16
    270a:	c7 01       	movw	r24, r14
    270c:	cf 96       	adiw	r24, 0x3f	; 63
    270e:	a1 1d       	adc	r26, r1
    2710:	b1 1d       	adc	r27, r1
    2712:	60 e0       	ldi	r22, 0x00	; 0
    2714:	70 e0       	ldi	r23, 0x00	; 0
    2716:	80 30       	cpi	r24, 0x00	; 0
    2718:	e0 e0       	ldi	r30, 0x00	; 0
    271a:	9e 07       	cpc	r25, r30
    271c:	e0 e0       	ldi	r30, 0x00	; 0
    271e:	ae 07       	cpc	r26, r30
    2720:	e0 e4       	ldi	r30, 0x40	; 64
    2722:	be 07       	cpc	r27, r30
    2724:	10 f0       	brcs	.+4      	; 0x272a <__pack_f+0x110>
    2726:	61 e0       	ldi	r22, 0x01	; 1
    2728:	70 e0       	ldi	r23, 0x00	; 0
    272a:	27 e0       	ldi	r18, 0x07	; 7
    272c:	b6 95       	lsr	r27
    272e:	a7 95       	ror	r26
    2730:	97 95       	ror	r25
    2732:	87 95       	ror	r24
    2734:	2a 95       	dec	r18
    2736:	d1 f7       	brne	.-12     	; 0x272c <__pack_f+0x112>
    2738:	af 77       	andi	r26, 0x7F	; 127
    273a:	b0 70       	andi	r27, 0x00	; 0
    273c:	68 c0       	rjmp	.+208    	; 0x280e <__pack_f+0x1f4>
    273e:	80 e0       	ldi	r24, 0x00	; 0
    2740:	90 e0       	ldi	r25, 0x00	; 0
    2742:	a0 e0       	ldi	r26, 0x00	; 0
    2744:	b0 e0       	ldi	r27, 0x00	; 0
    2746:	6f ef       	ldi	r22, 0xFF	; 255
    2748:	62 c0       	rjmp	.+196    	; 0x280e <__pack_f+0x1f4>
    274a:	80 e0       	ldi	r24, 0x00	; 0
    274c:	90 e0       	ldi	r25, 0x00	; 0
    274e:	a0 e0       	ldi	r26, 0x00	; 0
    2750:	b0 e0       	ldi	r27, 0x00	; 0
    2752:	60 e0       	ldi	r22, 0x00	; 0
    2754:	5c c0       	rjmp	.+184    	; 0x280e <__pack_f+0x1f4>
    2756:	80 38       	cpi	r24, 0x80	; 128
    2758:	91 05       	cpc	r25, r1
    275a:	8c f7       	brge	.-30     	; 0x273e <__pack_f+0x124>
    275c:	bc 01       	movw	r22, r24
    275e:	61 58       	subi	r22, 0x81	; 129
    2760:	7f 4f       	sbci	r23, 0xFF	; 255
    2762:	d8 01       	movw	r26, r16
    2764:	c7 01       	movw	r24, r14
    2766:	8f 77       	andi	r24, 0x7F	; 127
    2768:	90 70       	andi	r25, 0x00	; 0
    276a:	a0 70       	andi	r26, 0x00	; 0
    276c:	b0 70       	andi	r27, 0x00	; 0
    276e:	80 34       	cpi	r24, 0x40	; 64
    2770:	91 05       	cpc	r25, r1
    2772:	a1 05       	cpc	r26, r1
    2774:	b1 05       	cpc	r27, r1
    2776:	a1 f0       	breq	.+40     	; 0x27a0 <__pack_f+0x186>
    2778:	8f e3       	ldi	r24, 0x3F	; 63
    277a:	90 e0       	ldi	r25, 0x00	; 0
    277c:	a0 e0       	ldi	r26, 0x00	; 0
    277e:	b0 e0       	ldi	r27, 0x00	; 0
    2780:	e8 0e       	add	r14, r24
    2782:	f9 1e       	adc	r15, r25
    2784:	0a 1f       	adc	r16, r26
    2786:	1b 1f       	adc	r17, r27
    2788:	17 fd       	sbrc	r17, 7
    278a:	28 c0       	rjmp	.+80     	; 0x27dc <__pack_f+0x1c2>
    278c:	d8 01       	movw	r26, r16
    278e:	c7 01       	movw	r24, r14
    2790:	cc cf       	rjmp	.-104    	; 0x272a <__pack_f+0x110>
    2792:	60 e0       	ldi	r22, 0x00	; 0
    2794:	70 e0       	ldi	r23, 0x00	; 0
    2796:	80 e0       	ldi	r24, 0x00	; 0
    2798:	90 e0       	ldi	r25, 0x00	; 0
    279a:	a0 e0       	ldi	r26, 0x00	; 0
    279c:	b0 e0       	ldi	r27, 0x00	; 0
    279e:	cc cf       	rjmp	.-104    	; 0x2738 <__pack_f+0x11e>
    27a0:	e7 fe       	sbrs	r14, 7
    27a2:	f2 cf       	rjmp	.-28     	; 0x2788 <__pack_f+0x16e>
    27a4:	80 e4       	ldi	r24, 0x40	; 64
    27a6:	90 e0       	ldi	r25, 0x00	; 0
    27a8:	a0 e0       	ldi	r26, 0x00	; 0
    27aa:	b0 e0       	ldi	r27, 0x00	; 0
    27ac:	e8 0e       	add	r14, r24
    27ae:	f9 1e       	adc	r15, r25
    27b0:	0a 1f       	adc	r16, r26
    27b2:	1b 1f       	adc	r17, r27
    27b4:	e9 cf       	rjmp	.-46     	; 0x2788 <__pack_f+0x16e>
    27b6:	e7 fc       	sbrc	r14, 7
    27b8:	18 c0       	rjmp	.+48     	; 0x27ea <__pack_f+0x1d0>
    27ba:	80 e0       	ldi	r24, 0x00	; 0
    27bc:	90 e0       	ldi	r25, 0x00	; 0
    27be:	60 e0       	ldi	r22, 0x00	; 0
    27c0:	e6 16       	cp	r14, r22
    27c2:	60 e0       	ldi	r22, 0x00	; 0
    27c4:	f6 06       	cpc	r15, r22
    27c6:	60 e0       	ldi	r22, 0x00	; 0
    27c8:	06 07       	cpc	r16, r22
    27ca:	60 e4       	ldi	r22, 0x40	; 64
    27cc:	16 07       	cpc	r17, r22
    27ce:	10 f0       	brcs	.+4      	; 0x27d4 <__pack_f+0x1ba>
    27d0:	81 e0       	ldi	r24, 0x01	; 1
    27d2:	90 e0       	ldi	r25, 0x00	; 0
    27d4:	bc 01       	movw	r22, r24
    27d6:	d8 01       	movw	r26, r16
    27d8:	c7 01       	movw	r24, r14
    27da:	a7 cf       	rjmp	.-178    	; 0x272a <__pack_f+0x110>
    27dc:	16 95       	lsr	r17
    27de:	07 95       	ror	r16
    27e0:	f7 94       	ror	r15
    27e2:	e7 94       	ror	r14
    27e4:	6f 5f       	subi	r22, 0xFF	; 255
    27e6:	7f 4f       	sbci	r23, 0xFF	; 255
    27e8:	d1 cf       	rjmp	.-94     	; 0x278c <__pack_f+0x172>
    27ea:	d8 01       	movw	r26, r16
    27ec:	c7 01       	movw	r24, r14
    27ee:	80 5c       	subi	r24, 0xC0	; 192
    27f0:	9f 4f       	sbci	r25, 0xFF	; 255
    27f2:	af 4f       	sbci	r26, 0xFF	; 255
    27f4:	bf 4f       	sbci	r27, 0xFF	; 255
    27f6:	60 e0       	ldi	r22, 0x00	; 0
    27f8:	70 e0       	ldi	r23, 0x00	; 0
    27fa:	80 30       	cpi	r24, 0x00	; 0
    27fc:	e0 e0       	ldi	r30, 0x00	; 0
    27fe:	9e 07       	cpc	r25, r30
    2800:	e0 e0       	ldi	r30, 0x00	; 0
    2802:	ae 07       	cpc	r26, r30
    2804:	e0 e4       	ldi	r30, 0x40	; 64
    2806:	be 07       	cpc	r27, r30
    2808:	08 f4       	brcc	.+2      	; 0x280c <__pack_f+0x1f2>
    280a:	8f cf       	rjmp	.-226    	; 0x272a <__pack_f+0x110>
    280c:	8c cf       	rjmp	.-232    	; 0x2726 <__pack_f+0x10c>
    280e:	28 2f       	mov	r18, r24
    2810:	39 2f       	mov	r19, r25
    2812:	9a 2f       	mov	r25, r26
    2814:	9f 77       	andi	r25, 0x7F	; 127
    2816:	84 2f       	mov	r24, r20
    2818:	80 78       	andi	r24, 0x80	; 128
    281a:	89 2b       	or	r24, r25
    281c:	96 2f       	mov	r25, r22
    281e:	97 95       	ror	r25
    2820:	99 27       	eor	r25, r25
    2822:	97 95       	ror	r25
    2824:	8f 77       	andi	r24, 0x7F	; 127
    2826:	48 2f       	mov	r20, r24
    2828:	49 2b       	or	r20, r25
    282a:	66 95       	lsr	r22
    282c:	85 2f       	mov	r24, r21
    282e:	80 78       	andi	r24, 0x80	; 128
    2830:	86 2b       	or	r24, r22
    2832:	d7 94       	ror	r13
    2834:	dd 24       	eor	r13, r13
    2836:	d7 94       	ror	r13
    2838:	8f 77       	andi	r24, 0x7F	; 127
    283a:	58 2f       	mov	r21, r24
    283c:	5d 29       	or	r21, r13
    283e:	ca 01       	movw	r24, r20
    2840:	b9 01       	movw	r22, r18
    2842:	1f 91       	pop	r17
    2844:	0f 91       	pop	r16
    2846:	ff 90       	pop	r15
    2848:	ef 90       	pop	r14
    284a:	df 90       	pop	r13
    284c:	bf 90       	pop	r11
    284e:	af 90       	pop	r10
    2850:	9f 90       	pop	r9
    2852:	8f 90       	pop	r8
    2854:	7f 90       	pop	r7
    2856:	6f 90       	pop	r6
    2858:	5f 90       	pop	r5
    285a:	4f 90       	pop	r4
    285c:	08 95       	ret

0000285e <__unpack_f>:
    285e:	fc 01       	movw	r30, r24
    2860:	db 01       	movw	r26, r22
    2862:	20 81       	ld	r18, Z
    2864:	31 81       	ldd	r19, Z+1	; 0x01
    2866:	92 81       	ldd	r25, Z+2	; 0x02
    2868:	49 2f       	mov	r20, r25
    286a:	4f 77       	andi	r20, 0x7F	; 127
    286c:	50 e0       	ldi	r21, 0x00	; 0
    286e:	99 1f       	adc	r25, r25
    2870:	99 27       	eor	r25, r25
    2872:	99 1f       	adc	r25, r25
    2874:	83 81       	ldd	r24, Z+3	; 0x03
    2876:	68 2f       	mov	r22, r24
    2878:	66 0f       	add	r22, r22
    287a:	69 2b       	or	r22, r25
    287c:	88 1f       	adc	r24, r24
    287e:	88 27       	eor	r24, r24
    2880:	88 1f       	adc	r24, r24
    2882:	fd 01       	movw	r30, r26
    2884:	81 83       	std	Z+1, r24	; 0x01
    2886:	66 23       	and	r22, r22
    2888:	09 f0       	breq	.+2      	; 0x288c <__unpack_f+0x2e>
    288a:	49 c0       	rjmp	.+146    	; 0x291e <__unpack_f+0xc0>
    288c:	21 15       	cp	r18, r1
    288e:	31 05       	cpc	r19, r1
    2890:	41 05       	cpc	r20, r1
    2892:	51 05       	cpc	r21, r1
    2894:	09 f4       	brne	.+2      	; 0x2898 <__unpack_f+0x3a>
    2896:	70 c0       	rjmp	.+224    	; 0x2978 <__unpack_f+0x11a>
    2898:	82 e8       	ldi	r24, 0x82	; 130
    289a:	9f ef       	ldi	r25, 0xFF	; 255
    289c:	fd 01       	movw	r30, r26
    289e:	93 83       	std	Z+3, r25	; 0x03
    28a0:	82 83       	std	Z+2, r24	; 0x02
    28a2:	22 0f       	add	r18, r18
    28a4:	33 1f       	adc	r19, r19
    28a6:	44 1f       	adc	r20, r20
    28a8:	55 1f       	adc	r21, r21
    28aa:	22 0f       	add	r18, r18
    28ac:	33 1f       	adc	r19, r19
    28ae:	44 1f       	adc	r20, r20
    28b0:	55 1f       	adc	r21, r21
    28b2:	22 0f       	add	r18, r18
    28b4:	33 1f       	adc	r19, r19
    28b6:	44 1f       	adc	r20, r20
    28b8:	55 1f       	adc	r21, r21
    28ba:	22 0f       	add	r18, r18
    28bc:	33 1f       	adc	r19, r19
    28be:	44 1f       	adc	r20, r20
    28c0:	55 1f       	adc	r21, r21
    28c2:	22 0f       	add	r18, r18
    28c4:	33 1f       	adc	r19, r19
    28c6:	44 1f       	adc	r20, r20
    28c8:	55 1f       	adc	r21, r21
    28ca:	22 0f       	add	r18, r18
    28cc:	33 1f       	adc	r19, r19
    28ce:	44 1f       	adc	r20, r20
    28d0:	55 1f       	adc	r21, r21
    28d2:	22 0f       	add	r18, r18
    28d4:	33 1f       	adc	r19, r19
    28d6:	44 1f       	adc	r20, r20
    28d8:	55 1f       	adc	r21, r21
    28da:	83 e0       	ldi	r24, 0x03	; 3
    28dc:	8c 93       	st	X, r24
    28de:	20 30       	cpi	r18, 0x00	; 0
    28e0:	f0 e0       	ldi	r31, 0x00	; 0
    28e2:	3f 07       	cpc	r19, r31
    28e4:	f0 e0       	ldi	r31, 0x00	; 0
    28e6:	4f 07       	cpc	r20, r31
    28e8:	f0 e4       	ldi	r31, 0x40	; 64
    28ea:	5f 07       	cpc	r21, r31
    28ec:	90 f4       	brcc	.+36     	; 0x2912 <__unpack_f+0xb4>
    28ee:	82 e8       	ldi	r24, 0x82	; 130
    28f0:	9f ef       	ldi	r25, 0xFF	; 255
    28f2:	22 0f       	add	r18, r18
    28f4:	33 1f       	adc	r19, r19
    28f6:	44 1f       	adc	r20, r20
    28f8:	55 1f       	adc	r21, r21
    28fa:	01 97       	sbiw	r24, 0x01	; 1
    28fc:	20 30       	cpi	r18, 0x00	; 0
    28fe:	60 e0       	ldi	r22, 0x00	; 0
    2900:	36 07       	cpc	r19, r22
    2902:	60 e0       	ldi	r22, 0x00	; 0
    2904:	46 07       	cpc	r20, r22
    2906:	60 e4       	ldi	r22, 0x40	; 64
    2908:	56 07       	cpc	r21, r22
    290a:	98 f3       	brcs	.-26     	; 0x28f2 <__unpack_f+0x94>
    290c:	fd 01       	movw	r30, r26
    290e:	93 83       	std	Z+3, r25	; 0x03
    2910:	82 83       	std	Z+2, r24	; 0x02
    2912:	fd 01       	movw	r30, r26
    2914:	24 83       	std	Z+4, r18	; 0x04
    2916:	35 83       	std	Z+5, r19	; 0x05
    2918:	46 83       	std	Z+6, r20	; 0x06
    291a:	57 83       	std	Z+7, r21	; 0x07
    291c:	08 95       	ret
    291e:	6f 3f       	cpi	r22, 0xFF	; 255
    2920:	71 f1       	breq	.+92     	; 0x297e <__unpack_f+0x120>
    2922:	86 2f       	mov	r24, r22
    2924:	99 27       	eor	r25, r25
    2926:	8f 57       	subi	r24, 0x7F	; 127
    2928:	90 40       	sbci	r25, 0x00	; 0
    292a:	fd 01       	movw	r30, r26
    292c:	93 83       	std	Z+3, r25	; 0x03
    292e:	82 83       	std	Z+2, r24	; 0x02
    2930:	83 e0       	ldi	r24, 0x03	; 3
    2932:	8c 93       	st	X, r24
    2934:	22 0f       	add	r18, r18
    2936:	33 1f       	adc	r19, r19
    2938:	44 1f       	adc	r20, r20
    293a:	55 1f       	adc	r21, r21
    293c:	22 0f       	add	r18, r18
    293e:	33 1f       	adc	r19, r19
    2940:	44 1f       	adc	r20, r20
    2942:	55 1f       	adc	r21, r21
    2944:	22 0f       	add	r18, r18
    2946:	33 1f       	adc	r19, r19
    2948:	44 1f       	adc	r20, r20
    294a:	55 1f       	adc	r21, r21
    294c:	22 0f       	add	r18, r18
    294e:	33 1f       	adc	r19, r19
    2950:	44 1f       	adc	r20, r20
    2952:	55 1f       	adc	r21, r21
    2954:	22 0f       	add	r18, r18
    2956:	33 1f       	adc	r19, r19
    2958:	44 1f       	adc	r20, r20
    295a:	55 1f       	adc	r21, r21
    295c:	22 0f       	add	r18, r18
    295e:	33 1f       	adc	r19, r19
    2960:	44 1f       	adc	r20, r20
    2962:	55 1f       	adc	r21, r21
    2964:	22 0f       	add	r18, r18
    2966:	33 1f       	adc	r19, r19
    2968:	44 1f       	adc	r20, r20
    296a:	55 1f       	adc	r21, r21
    296c:	50 64       	ori	r21, 0x40	; 64
    296e:	24 83       	std	Z+4, r18	; 0x04
    2970:	35 83       	std	Z+5, r19	; 0x05
    2972:	46 83       	std	Z+6, r20	; 0x06
    2974:	57 83       	std	Z+7, r21	; 0x07
    2976:	08 95       	ret
    2978:	82 e0       	ldi	r24, 0x02	; 2
    297a:	8c 93       	st	X, r24
    297c:	08 95       	ret
    297e:	21 15       	cp	r18, r1
    2980:	31 05       	cpc	r19, r1
    2982:	41 05       	cpc	r20, r1
    2984:	51 05       	cpc	r21, r1
    2986:	19 f4       	brne	.+6      	; 0x298e <__unpack_f+0x130>
    2988:	84 e0       	ldi	r24, 0x04	; 4
    298a:	8c 93       	st	X, r24
    298c:	08 95       	ret
    298e:	44 fd       	sbrc	r20, 4
    2990:	02 c0       	rjmp	.+4      	; 0x2996 <__unpack_f+0x138>
    2992:	1c 92       	st	X, r1
    2994:	be cf       	rjmp	.-132    	; 0x2912 <__unpack_f+0xb4>
    2996:	81 e0       	ldi	r24, 0x01	; 1
    2998:	8c 93       	st	X, r24
    299a:	bb cf       	rjmp	.-138    	; 0x2912 <__unpack_f+0xb4>

0000299c <memset>:
    299c:	dc 01       	movw	r26, r24
    299e:	01 c0       	rjmp	.+2      	; 0x29a2 <memset+0x6>
    29a0:	6d 93       	st	X+, r22
    29a2:	41 50       	subi	r20, 0x01	; 1
    29a4:	50 40       	sbci	r21, 0x00	; 0
    29a6:	e0 f7       	brcc	.-8      	; 0x29a0 <memset+0x4>
    29a8:	08 95       	ret

000029aa <__mulsi3>:
    29aa:	62 9f       	mul	r22, r18
    29ac:	d0 01       	movw	r26, r0
    29ae:	73 9f       	mul	r23, r19
    29b0:	f0 01       	movw	r30, r0
    29b2:	82 9f       	mul	r24, r18
    29b4:	e0 0d       	add	r30, r0
    29b6:	f1 1d       	adc	r31, r1
    29b8:	64 9f       	mul	r22, r20
    29ba:	e0 0d       	add	r30, r0
    29bc:	f1 1d       	adc	r31, r1
    29be:	92 9f       	mul	r25, r18
    29c0:	f0 0d       	add	r31, r0
    29c2:	83 9f       	mul	r24, r19
    29c4:	f0 0d       	add	r31, r0
    29c6:	74 9f       	mul	r23, r20
    29c8:	f0 0d       	add	r31, r0
    29ca:	65 9f       	mul	r22, r21
    29cc:	f0 0d       	add	r31, r0
    29ce:	99 27       	eor	r25, r25
    29d0:	72 9f       	mul	r23, r18
    29d2:	b0 0d       	add	r27, r0
    29d4:	e1 1d       	adc	r30, r1
    29d6:	f9 1f       	adc	r31, r25
    29d8:	63 9f       	mul	r22, r19
    29da:	b0 0d       	add	r27, r0
    29dc:	e1 1d       	adc	r30, r1
    29de:	f9 1f       	adc	r31, r25
    29e0:	bd 01       	movw	r22, r26
    29e2:	cf 01       	movw	r24, r30
    29e4:	11 24       	eor	r1, r1
    29e6:	08 95       	ret

000029e8 <__udivmodsi4>:
    29e8:	a1 e2       	ldi	r26, 0x21	; 33
    29ea:	1a 2e       	mov	r1, r26
    29ec:	aa 1b       	sub	r26, r26
    29ee:	bb 1b       	sub	r27, r27
    29f0:	fd 01       	movw	r30, r26
    29f2:	0d c0       	rjmp	.+26     	; 0x2a0e <__udivmodsi4_ep>

000029f4 <__udivmodsi4_loop>:
    29f4:	aa 1f       	adc	r26, r26
    29f6:	bb 1f       	adc	r27, r27
    29f8:	ee 1f       	adc	r30, r30
    29fa:	ff 1f       	adc	r31, r31
    29fc:	a2 17       	cp	r26, r18
    29fe:	b3 07       	cpc	r27, r19
    2a00:	e4 07       	cpc	r30, r20
    2a02:	f5 07       	cpc	r31, r21
    2a04:	20 f0       	brcs	.+8      	; 0x2a0e <__udivmodsi4_ep>
    2a06:	a2 1b       	sub	r26, r18
    2a08:	b3 0b       	sbc	r27, r19
    2a0a:	e4 0b       	sbc	r30, r20
    2a0c:	f5 0b       	sbc	r31, r21

00002a0e <__udivmodsi4_ep>:
    2a0e:	66 1f       	adc	r22, r22
    2a10:	77 1f       	adc	r23, r23
    2a12:	88 1f       	adc	r24, r24
    2a14:	99 1f       	adc	r25, r25
    2a16:	1a 94       	dec	r1
    2a18:	69 f7       	brne	.-38     	; 0x29f4 <__udivmodsi4_loop>
    2a1a:	60 95       	com	r22
    2a1c:	70 95       	com	r23
    2a1e:	80 95       	com	r24
    2a20:	90 95       	com	r25
    2a22:	9b 01       	movw	r18, r22
    2a24:	ac 01       	movw	r20, r24
    2a26:	bd 01       	movw	r22, r26
    2a28:	cf 01       	movw	r24, r30
    2a2a:	08 95       	ret

00002a2c <__prologue_saves__>:
    2a2c:	2f 92       	push	r2
    2a2e:	3f 92       	push	r3
    2a30:	4f 92       	push	r4
    2a32:	5f 92       	push	r5
    2a34:	6f 92       	push	r6
    2a36:	7f 92       	push	r7
    2a38:	8f 92       	push	r8
    2a3a:	9f 92       	push	r9
    2a3c:	af 92       	push	r10
    2a3e:	bf 92       	push	r11
    2a40:	cf 92       	push	r12
    2a42:	df 92       	push	r13
    2a44:	ef 92       	push	r14
    2a46:	ff 92       	push	r15
    2a48:	0f 93       	push	r16
    2a4a:	1f 93       	push	r17
    2a4c:	cf 93       	push	r28
    2a4e:	df 93       	push	r29
    2a50:	cd b7       	in	r28, 0x3d	; 61
    2a52:	de b7       	in	r29, 0x3e	; 62
    2a54:	ca 1b       	sub	r28, r26
    2a56:	db 0b       	sbc	r29, r27
    2a58:	0f b6       	in	r0, 0x3f	; 63
    2a5a:	f8 94       	cli
    2a5c:	de bf       	out	0x3e, r29	; 62
    2a5e:	0f be       	out	0x3f, r0	; 63
    2a60:	cd bf       	out	0x3d, r28	; 61
    2a62:	09 94       	ijmp

00002a64 <__epilogue_restores__>:
    2a64:	2a 88       	ldd	r2, Y+18	; 0x12
    2a66:	39 88       	ldd	r3, Y+17	; 0x11
    2a68:	48 88       	ldd	r4, Y+16	; 0x10
    2a6a:	5f 84       	ldd	r5, Y+15	; 0x0f
    2a6c:	6e 84       	ldd	r6, Y+14	; 0x0e
    2a6e:	7d 84       	ldd	r7, Y+13	; 0x0d
    2a70:	8c 84       	ldd	r8, Y+12	; 0x0c
    2a72:	9b 84       	ldd	r9, Y+11	; 0x0b
    2a74:	aa 84       	ldd	r10, Y+10	; 0x0a
    2a76:	b9 84       	ldd	r11, Y+9	; 0x09
    2a78:	c8 84       	ldd	r12, Y+8	; 0x08
    2a7a:	df 80       	ldd	r13, Y+7	; 0x07
    2a7c:	ee 80       	ldd	r14, Y+6	; 0x06
    2a7e:	fd 80       	ldd	r15, Y+5	; 0x05
    2a80:	0c 81       	ldd	r16, Y+4	; 0x04
    2a82:	1b 81       	ldd	r17, Y+3	; 0x03
    2a84:	aa 81       	ldd	r26, Y+2	; 0x02
    2a86:	b9 81       	ldd	r27, Y+1	; 0x01
    2a88:	ce 0f       	add	r28, r30
    2a8a:	d1 1d       	adc	r29, r1
    2a8c:	0f b6       	in	r0, 0x3f	; 63
    2a8e:	f8 94       	cli
    2a90:	de bf       	out	0x3e, r29	; 62
    2a92:	0f be       	out	0x3f, r0	; 63
    2a94:	cd bf       	out	0x3d, r28	; 61
    2a96:	ed 01       	movw	r28, r26
    2a98:	08 95       	ret

00002a9a <__eeprom_read_block_1F2021>:
    2a9a:	09 d0       	rcall	.+18     	; 0x2aae <__eeprom_read_byte_1F2021>
    2a9c:	01 92       	st	Z+, r0
    2a9e:	1a 94       	dec	r1
    2aa0:	e1 f7       	brne	.-8      	; 0x2a9a <__eeprom_read_block_1F2021>
    2aa2:	08 95       	ret

00002aa4 <__eeprom_write_block_1F2021>:
    2aa4:	01 90       	ld	r0, Z+
    2aa6:	0b d0       	rcall	.+22     	; 0x2abe <__eeprom_write_byte_1F2021>
    2aa8:	1a 94       	dec	r1
    2aaa:	e1 f7       	brne	.-8      	; 0x2aa4 <__eeprom_write_block_1F2021>
    2aac:	08 95       	ret

00002aae <__eeprom_read_byte_1F2021>:
    2aae:	f9 99       	sbic	0x1f, 1	; 31
    2ab0:	fe cf       	rjmp	.-4      	; 0x2aae <__eeprom_read_byte_1F2021>
    2ab2:	b2 bd       	out	0x22, r27	; 34
    2ab4:	a1 bd       	out	0x21, r26	; 33
    2ab6:	f8 9a       	sbi	0x1f, 0	; 31
    2ab8:	11 96       	adiw	r26, 0x01	; 1
    2aba:	00 b4       	in	r0, 0x20	; 32
    2abc:	08 95       	ret

00002abe <__eeprom_write_byte_1F2021>:
    2abe:	f9 99       	sbic	0x1f, 1	; 31
    2ac0:	fe cf       	rjmp	.-4      	; 0x2abe <__eeprom_write_byte_1F2021>
    2ac2:	b2 bd       	out	0x22, r27	; 34
    2ac4:	a1 bd       	out	0x21, r26	; 33
    2ac6:	00 bc       	out	0x20, r0	; 32
    2ac8:	11 96       	adiw	r26, 0x01	; 1
    2aca:	0f b6       	in	r0, 0x3f	; 63
    2acc:	f8 94       	cli
    2ace:	fa 9a       	sbi	0x1f, 2	; 31
    2ad0:	f9 9a       	sbi	0x1f, 1	; 31
    2ad2:	0f be       	out	0x3f, r0	; 63
    2ad4:	08 95       	ret
